
rtarget:     file format elf64-x86-64


Disassembly of section .init:

0000000000001000 <_init>:
    1000:	f3 0f 1e fa          	endbr64 
    1004:	48 83 ec 08          	sub    $0x8,%rsp
    1008:	48 8b 05 d9 5f 00 00 	mov    0x5fd9(%rip),%rax        # 6fe8 <__gmon_start__>
    100f:	48 85 c0             	test   %rax,%rax
    1012:	74 02                	je     1016 <_init+0x16>
    1014:	ff d0                	callq  *%rax
    1016:	48 83 c4 08          	add    $0x8,%rsp
    101a:	c3                   	retq   

Disassembly of section .plt:

0000000000001020 <.plt>:
    1020:	ff 35 9a 5e 00 00    	pushq  0x5e9a(%rip)        # 6ec0 <_GLOBAL_OFFSET_TABLE_+0x8>
    1026:	f2 ff 25 9b 5e 00 00 	bnd jmpq *0x5e9b(%rip)        # 6ec8 <_GLOBAL_OFFSET_TABLE_+0x10>
    102d:	0f 1f 00             	nopl   (%rax)
    1030:	f3 0f 1e fa          	endbr64 
    1034:	68 00 00 00 00       	pushq  $0x0
    1039:	f2 e9 e1 ff ff ff    	bnd jmpq 1020 <.plt>
    103f:	90                   	nop
    1040:	f3 0f 1e fa          	endbr64 
    1044:	68 01 00 00 00       	pushq  $0x1
    1049:	f2 e9 d1 ff ff ff    	bnd jmpq 1020 <.plt>
    104f:	90                   	nop
    1050:	f3 0f 1e fa          	endbr64 
    1054:	68 02 00 00 00       	pushq  $0x2
    1059:	f2 e9 c1 ff ff ff    	bnd jmpq 1020 <.plt>
    105f:	90                   	nop
    1060:	f3 0f 1e fa          	endbr64 
    1064:	68 03 00 00 00       	pushq  $0x3
    1069:	f2 e9 b1 ff ff ff    	bnd jmpq 1020 <.plt>
    106f:	90                   	nop
    1070:	f3 0f 1e fa          	endbr64 
    1074:	68 04 00 00 00       	pushq  $0x4
    1079:	f2 e9 a1 ff ff ff    	bnd jmpq 1020 <.plt>
    107f:	90                   	nop
    1080:	f3 0f 1e fa          	endbr64 
    1084:	68 05 00 00 00       	pushq  $0x5
    1089:	f2 e9 91 ff ff ff    	bnd jmpq 1020 <.plt>
    108f:	90                   	nop
    1090:	f3 0f 1e fa          	endbr64 
    1094:	68 06 00 00 00       	pushq  $0x6
    1099:	f2 e9 81 ff ff ff    	bnd jmpq 1020 <.plt>
    109f:	90                   	nop
    10a0:	f3 0f 1e fa          	endbr64 
    10a4:	68 07 00 00 00       	pushq  $0x7
    10a9:	f2 e9 71 ff ff ff    	bnd jmpq 1020 <.plt>
    10af:	90                   	nop
    10b0:	f3 0f 1e fa          	endbr64 
    10b4:	68 08 00 00 00       	pushq  $0x8
    10b9:	f2 e9 61 ff ff ff    	bnd jmpq 1020 <.plt>
    10bf:	90                   	nop
    10c0:	f3 0f 1e fa          	endbr64 
    10c4:	68 09 00 00 00       	pushq  $0x9
    10c9:	f2 e9 51 ff ff ff    	bnd jmpq 1020 <.plt>
    10cf:	90                   	nop
    10d0:	f3 0f 1e fa          	endbr64 
    10d4:	68 0a 00 00 00       	pushq  $0xa
    10d9:	f2 e9 41 ff ff ff    	bnd jmpq 1020 <.plt>
    10df:	90                   	nop
    10e0:	f3 0f 1e fa          	endbr64 
    10e4:	68 0b 00 00 00       	pushq  $0xb
    10e9:	f2 e9 31 ff ff ff    	bnd jmpq 1020 <.plt>
    10ef:	90                   	nop
    10f0:	f3 0f 1e fa          	endbr64 
    10f4:	68 0c 00 00 00       	pushq  $0xc
    10f9:	f2 e9 21 ff ff ff    	bnd jmpq 1020 <.plt>
    10ff:	90                   	nop
    1100:	f3 0f 1e fa          	endbr64 
    1104:	68 0d 00 00 00       	pushq  $0xd
    1109:	f2 e9 11 ff ff ff    	bnd jmpq 1020 <.plt>
    110f:	90                   	nop
    1110:	f3 0f 1e fa          	endbr64 
    1114:	68 0e 00 00 00       	pushq  $0xe
    1119:	f2 e9 01 ff ff ff    	bnd jmpq 1020 <.plt>
    111f:	90                   	nop
    1120:	f3 0f 1e fa          	endbr64 
    1124:	68 0f 00 00 00       	pushq  $0xf
    1129:	f2 e9 f1 fe ff ff    	bnd jmpq 1020 <.plt>
    112f:	90                   	nop
    1130:	f3 0f 1e fa          	endbr64 
    1134:	68 10 00 00 00       	pushq  $0x10
    1139:	f2 e9 e1 fe ff ff    	bnd jmpq 1020 <.plt>
    113f:	90                   	nop
    1140:	f3 0f 1e fa          	endbr64 
    1144:	68 11 00 00 00       	pushq  $0x11
    1149:	f2 e9 d1 fe ff ff    	bnd jmpq 1020 <.plt>
    114f:	90                   	nop
    1150:	f3 0f 1e fa          	endbr64 
    1154:	68 12 00 00 00       	pushq  $0x12
    1159:	f2 e9 c1 fe ff ff    	bnd jmpq 1020 <.plt>
    115f:	90                   	nop
    1160:	f3 0f 1e fa          	endbr64 
    1164:	68 13 00 00 00       	pushq  $0x13
    1169:	f2 e9 b1 fe ff ff    	bnd jmpq 1020 <.plt>
    116f:	90                   	nop
    1170:	f3 0f 1e fa          	endbr64 
    1174:	68 14 00 00 00       	pushq  $0x14
    1179:	f2 e9 a1 fe ff ff    	bnd jmpq 1020 <.plt>
    117f:	90                   	nop
    1180:	f3 0f 1e fa          	endbr64 
    1184:	68 15 00 00 00       	pushq  $0x15
    1189:	f2 e9 91 fe ff ff    	bnd jmpq 1020 <.plt>
    118f:	90                   	nop
    1190:	f3 0f 1e fa          	endbr64 
    1194:	68 16 00 00 00       	pushq  $0x16
    1199:	f2 e9 81 fe ff ff    	bnd jmpq 1020 <.plt>
    119f:	90                   	nop
    11a0:	f3 0f 1e fa          	endbr64 
    11a4:	68 17 00 00 00       	pushq  $0x17
    11a9:	f2 e9 71 fe ff ff    	bnd jmpq 1020 <.plt>
    11af:	90                   	nop
    11b0:	f3 0f 1e fa          	endbr64 
    11b4:	68 18 00 00 00       	pushq  $0x18
    11b9:	f2 e9 61 fe ff ff    	bnd jmpq 1020 <.plt>
    11bf:	90                   	nop
    11c0:	f3 0f 1e fa          	endbr64 
    11c4:	68 19 00 00 00       	pushq  $0x19
    11c9:	f2 e9 51 fe ff ff    	bnd jmpq 1020 <.plt>
    11cf:	90                   	nop
    11d0:	f3 0f 1e fa          	endbr64 
    11d4:	68 1a 00 00 00       	pushq  $0x1a
    11d9:	f2 e9 41 fe ff ff    	bnd jmpq 1020 <.plt>
    11df:	90                   	nop
    11e0:	f3 0f 1e fa          	endbr64 
    11e4:	68 1b 00 00 00       	pushq  $0x1b
    11e9:	f2 e9 31 fe ff ff    	bnd jmpq 1020 <.plt>
    11ef:	90                   	nop
    11f0:	f3 0f 1e fa          	endbr64 
    11f4:	68 1c 00 00 00       	pushq  $0x1c
    11f9:	f2 e9 21 fe ff ff    	bnd jmpq 1020 <.plt>
    11ff:	90                   	nop
    1200:	f3 0f 1e fa          	endbr64 
    1204:	68 1d 00 00 00       	pushq  $0x1d
    1209:	f2 e9 11 fe ff ff    	bnd jmpq 1020 <.plt>
    120f:	90                   	nop
    1210:	f3 0f 1e fa          	endbr64 
    1214:	68 1e 00 00 00       	pushq  $0x1e
    1219:	f2 e9 01 fe ff ff    	bnd jmpq 1020 <.plt>
    121f:	90                   	nop
    1220:	f3 0f 1e fa          	endbr64 
    1224:	68 1f 00 00 00       	pushq  $0x1f
    1229:	f2 e9 f1 fd ff ff    	bnd jmpq 1020 <.plt>
    122f:	90                   	nop
    1230:	f3 0f 1e fa          	endbr64 
    1234:	68 20 00 00 00       	pushq  $0x20
    1239:	f2 e9 e1 fd ff ff    	bnd jmpq 1020 <.plt>
    123f:	90                   	nop

Disassembly of section .plt.got:

0000000000001240 <__cxa_finalize@plt>:
    1240:	f3 0f 1e fa          	endbr64 
    1244:	f2 ff 25 ad 5d 00 00 	bnd jmpq *0x5dad(%rip)        # 6ff8 <__cxa_finalize@GLIBC_2.2.5>
    124b:	0f 1f 44 00 00       	nopl   0x0(%rax,%rax,1)

Disassembly of section .plt.sec:

0000000000001250 <strcasecmp@plt>:
    1250:	f3 0f 1e fa          	endbr64 
    1254:	f2 ff 25 75 5c 00 00 	bnd jmpq *0x5c75(%rip)        # 6ed0 <strcasecmp@GLIBC_2.2.5>
    125b:	0f 1f 44 00 00       	nopl   0x0(%rax,%rax,1)

0000000000001260 <__errno_location@plt>:
    1260:	f3 0f 1e fa          	endbr64 
    1264:	f2 ff 25 6d 5c 00 00 	bnd jmpq *0x5c6d(%rip)        # 6ed8 <__errno_location@GLIBC_2.2.5>
    126b:	0f 1f 44 00 00       	nopl   0x0(%rax,%rax,1)

0000000000001270 <srandom@plt>:
    1270:	f3 0f 1e fa          	endbr64 
    1274:	f2 ff 25 65 5c 00 00 	bnd jmpq *0x5c65(%rip)        # 6ee0 <srandom@GLIBC_2.2.5>
    127b:	0f 1f 44 00 00       	nopl   0x0(%rax,%rax,1)

0000000000001280 <strncmp@plt>:
    1280:	f3 0f 1e fa          	endbr64 
    1284:	f2 ff 25 5d 5c 00 00 	bnd jmpq *0x5c5d(%rip)        # 6ee8 <strncmp@GLIBC_2.2.5>
    128b:	0f 1f 44 00 00       	nopl   0x0(%rax,%rax,1)

0000000000001290 <strcpy@plt>:
    1290:	f3 0f 1e fa          	endbr64 
    1294:	f2 ff 25 55 5c 00 00 	bnd jmpq *0x5c55(%rip)        # 6ef0 <strcpy@GLIBC_2.2.5>
    129b:	0f 1f 44 00 00       	nopl   0x0(%rax,%rax,1)

00000000000012a0 <puts@plt>:
    12a0:	f3 0f 1e fa          	endbr64 
    12a4:	f2 ff 25 4d 5c 00 00 	bnd jmpq *0x5c4d(%rip)        # 6ef8 <puts@GLIBC_2.2.5>
    12ab:	0f 1f 44 00 00       	nopl   0x0(%rax,%rax,1)

00000000000012b0 <write@plt>:
    12b0:	f3 0f 1e fa          	endbr64 
    12b4:	f2 ff 25 45 5c 00 00 	bnd jmpq *0x5c45(%rip)        # 6f00 <write@GLIBC_2.2.5>
    12bb:	0f 1f 44 00 00       	nopl   0x0(%rax,%rax,1)

00000000000012c0 <__stack_chk_fail@plt>:
    12c0:	f3 0f 1e fa          	endbr64 
    12c4:	f2 ff 25 3d 5c 00 00 	bnd jmpq *0x5c3d(%rip)        # 6f08 <__stack_chk_fail@GLIBC_2.4>
    12cb:	0f 1f 44 00 00       	nopl   0x0(%rax,%rax,1)

00000000000012d0 <mmap@plt>:
    12d0:	f3 0f 1e fa          	endbr64 
    12d4:	f2 ff 25 35 5c 00 00 	bnd jmpq *0x5c35(%rip)        # 6f10 <mmap@GLIBC_2.2.5>
    12db:	0f 1f 44 00 00       	nopl   0x0(%rax,%rax,1)

00000000000012e0 <memset@plt>:
    12e0:	f3 0f 1e fa          	endbr64 
    12e4:	f2 ff 25 2d 5c 00 00 	bnd jmpq *0x5c2d(%rip)        # 6f18 <memset@GLIBC_2.2.5>
    12eb:	0f 1f 44 00 00       	nopl   0x0(%rax,%rax,1)

00000000000012f0 <alarm@plt>:
    12f0:	f3 0f 1e fa          	endbr64 
    12f4:	f2 ff 25 25 5c 00 00 	bnd jmpq *0x5c25(%rip)        # 6f20 <alarm@GLIBC_2.2.5>
    12fb:	0f 1f 44 00 00       	nopl   0x0(%rax,%rax,1)

0000000000001300 <close@plt>:
    1300:	f3 0f 1e fa          	endbr64 
    1304:	f2 ff 25 1d 5c 00 00 	bnd jmpq *0x5c1d(%rip)        # 6f28 <close@GLIBC_2.2.5>
    130b:	0f 1f 44 00 00       	nopl   0x0(%rax,%rax,1)

0000000000001310 <read@plt>:
    1310:	f3 0f 1e fa          	endbr64 
    1314:	f2 ff 25 15 5c 00 00 	bnd jmpq *0x5c15(%rip)        # 6f30 <read@GLIBC_2.2.5>
    131b:	0f 1f 44 00 00       	nopl   0x0(%rax,%rax,1)

0000000000001320 <signal@plt>:
    1320:	f3 0f 1e fa          	endbr64 
    1324:	f2 ff 25 0d 5c 00 00 	bnd jmpq *0x5c0d(%rip)        # 6f38 <signal@GLIBC_2.2.5>
    132b:	0f 1f 44 00 00       	nopl   0x0(%rax,%rax,1)

0000000000001330 <gethostbyname@plt>:
    1330:	f3 0f 1e fa          	endbr64 
    1334:	f2 ff 25 05 5c 00 00 	bnd jmpq *0x5c05(%rip)        # 6f40 <gethostbyname@GLIBC_2.2.5>
    133b:	0f 1f 44 00 00       	nopl   0x0(%rax,%rax,1)

0000000000001340 <__memmove_chk@plt>:
    1340:	f3 0f 1e fa          	endbr64 
    1344:	f2 ff 25 fd 5b 00 00 	bnd jmpq *0x5bfd(%rip)        # 6f48 <__memmove_chk@GLIBC_2.3.4>
    134b:	0f 1f 44 00 00       	nopl   0x0(%rax,%rax,1)

0000000000001350 <strtol@plt>:
    1350:	f3 0f 1e fa          	endbr64 
    1354:	f2 ff 25 f5 5b 00 00 	bnd jmpq *0x5bf5(%rip)        # 6f50 <strtol@GLIBC_2.2.5>
    135b:	0f 1f 44 00 00       	nopl   0x0(%rax,%rax,1)

0000000000001360 <memcpy@plt>:
    1360:	f3 0f 1e fa          	endbr64 
    1364:	f2 ff 25 ed 5b 00 00 	bnd jmpq *0x5bed(%rip)        # 6f58 <memcpy@GLIBC_2.14>
    136b:	0f 1f 44 00 00       	nopl   0x0(%rax,%rax,1)

0000000000001370 <time@plt>:
    1370:	f3 0f 1e fa          	endbr64 
    1374:	f2 ff 25 e5 5b 00 00 	bnd jmpq *0x5be5(%rip)        # 6f60 <time@GLIBC_2.2.5>
    137b:	0f 1f 44 00 00       	nopl   0x0(%rax,%rax,1)

0000000000001380 <random@plt>:
    1380:	f3 0f 1e fa          	endbr64 
    1384:	f2 ff 25 dd 5b 00 00 	bnd jmpq *0x5bdd(%rip)        # 6f68 <random@GLIBC_2.2.5>
    138b:	0f 1f 44 00 00       	nopl   0x0(%rax,%rax,1)

0000000000001390 <__isoc99_sscanf@plt>:
    1390:	f3 0f 1e fa          	endbr64 
    1394:	f2 ff 25 d5 5b 00 00 	bnd jmpq *0x5bd5(%rip)        # 6f70 <__isoc99_sscanf@GLIBC_2.7>
    139b:	0f 1f 44 00 00       	nopl   0x0(%rax,%rax,1)

00000000000013a0 <munmap@plt>:
    13a0:	f3 0f 1e fa          	endbr64 
    13a4:	f2 ff 25 cd 5b 00 00 	bnd jmpq *0x5bcd(%rip)        # 6f78 <munmap@GLIBC_2.2.5>
    13ab:	0f 1f 44 00 00       	nopl   0x0(%rax,%rax,1)

00000000000013b0 <__printf_chk@plt>:
    13b0:	f3 0f 1e fa          	endbr64 
    13b4:	f2 ff 25 c5 5b 00 00 	bnd jmpq *0x5bc5(%rip)        # 6f80 <__printf_chk@GLIBC_2.3.4>
    13bb:	0f 1f 44 00 00       	nopl   0x0(%rax,%rax,1)

00000000000013c0 <fopen@plt>:
    13c0:	f3 0f 1e fa          	endbr64 
    13c4:	f2 ff 25 bd 5b 00 00 	bnd jmpq *0x5bbd(%rip)        # 6f88 <fopen@GLIBC_2.2.5>
    13cb:	0f 1f 44 00 00       	nopl   0x0(%rax,%rax,1)

00000000000013d0 <getopt@plt>:
    13d0:	f3 0f 1e fa          	endbr64 
    13d4:	f2 ff 25 b5 5b 00 00 	bnd jmpq *0x5bb5(%rip)        # 6f90 <getopt@GLIBC_2.2.5>
    13db:	0f 1f 44 00 00       	nopl   0x0(%rax,%rax,1)

00000000000013e0 <strtoul@plt>:
    13e0:	f3 0f 1e fa          	endbr64 
    13e4:	f2 ff 25 ad 5b 00 00 	bnd jmpq *0x5bad(%rip)        # 6f98 <strtoul@GLIBC_2.2.5>
    13eb:	0f 1f 44 00 00       	nopl   0x0(%rax,%rax,1)

00000000000013f0 <gethostname@plt>:
    13f0:	f3 0f 1e fa          	endbr64 
    13f4:	f2 ff 25 a5 5b 00 00 	bnd jmpq *0x5ba5(%rip)        # 6fa0 <gethostname@GLIBC_2.2.5>
    13fb:	0f 1f 44 00 00       	nopl   0x0(%rax,%rax,1)

0000000000001400 <exit@plt>:
    1400:	f3 0f 1e fa          	endbr64 
    1404:	f2 ff 25 9d 5b 00 00 	bnd jmpq *0x5b9d(%rip)        # 6fa8 <exit@GLIBC_2.2.5>
    140b:	0f 1f 44 00 00       	nopl   0x0(%rax,%rax,1)

0000000000001410 <connect@plt>:
    1410:	f3 0f 1e fa          	endbr64 
    1414:	f2 ff 25 95 5b 00 00 	bnd jmpq *0x5b95(%rip)        # 6fb0 <connect@GLIBC_2.2.5>
    141b:	0f 1f 44 00 00       	nopl   0x0(%rax,%rax,1)

0000000000001420 <__fprintf_chk@plt>:
    1420:	f3 0f 1e fa          	endbr64 
    1424:	f2 ff 25 8d 5b 00 00 	bnd jmpq *0x5b8d(%rip)        # 6fb8 <__fprintf_chk@GLIBC_2.3.4>
    142b:	0f 1f 44 00 00       	nopl   0x0(%rax,%rax,1)

0000000000001430 <getc@plt>:
    1430:	f3 0f 1e fa          	endbr64 
    1434:	f2 ff 25 85 5b 00 00 	bnd jmpq *0x5b85(%rip)        # 6fc0 <getc@GLIBC_2.2.5>
    143b:	0f 1f 44 00 00       	nopl   0x0(%rax,%rax,1)

0000000000001440 <__sprintf_chk@plt>:
    1440:	f3 0f 1e fa          	endbr64 
    1444:	f2 ff 25 7d 5b 00 00 	bnd jmpq *0x5b7d(%rip)        # 6fc8 <__sprintf_chk@GLIBC_2.3.4>
    144b:	0f 1f 44 00 00       	nopl   0x0(%rax,%rax,1)

0000000000001450 <socket@plt>:
    1450:	f3 0f 1e fa          	endbr64 
    1454:	f2 ff 25 75 5b 00 00 	bnd jmpq *0x5b75(%rip)        # 6fd0 <socket@GLIBC_2.2.5>
    145b:	0f 1f 44 00 00       	nopl   0x0(%rax,%rax,1)

Disassembly of section .text:

0000000000001460 <_start>:
    1460:	f3 0f 1e fa          	endbr64 
    1464:	31 ed                	xor    %ebp,%ebp
    1466:	49 89 d1             	mov    %rdx,%r9
    1469:	5e                   	pop    %rsi
    146a:	48 89 e2             	mov    %rsp,%rdx
    146d:	48 83 e4 f0          	and    $0xfffffffffffffff0,%rsp
    1471:	50                   	push   %rax
    1472:	54                   	push   %rsp
    1473:	4c 8d 05 56 22 00 00 	lea    0x2256(%rip),%r8        # 36d0 <__libc_csu_fini>
    147a:	48 8d 0d df 21 00 00 	lea    0x21df(%rip),%rcx        # 3660 <__libc_csu_init>
    1481:	48 8d 3d 04 03 00 00 	lea    0x304(%rip),%rdi        # 178c <main>
    1488:	ff 15 52 5b 00 00    	callq  *0x5b52(%rip)        # 6fe0 <__libc_start_main@GLIBC_2.2.5>
    148e:	f4                   	hlt    
    148f:	90                   	nop

0000000000001490 <deregister_tm_clones>:
    1490:	48 8d 3d d9 5e 00 00 	lea    0x5ed9(%rip),%rdi        # 7370 <__TMC_END__>
    1497:	48 8d 05 d2 5e 00 00 	lea    0x5ed2(%rip),%rax        # 7370 <__TMC_END__>
    149e:	48 39 f8             	cmp    %rdi,%rax
    14a1:	74 15                	je     14b8 <deregister_tm_clones+0x28>
    14a3:	48 8b 05 2e 5b 00 00 	mov    0x5b2e(%rip),%rax        # 6fd8 <_ITM_deregisterTMCloneTable>
    14aa:	48 85 c0             	test   %rax,%rax
    14ad:	74 09                	je     14b8 <deregister_tm_clones+0x28>
    14af:	ff e0                	jmpq   *%rax
    14b1:	0f 1f 80 00 00 00 00 	nopl   0x0(%rax)
    14b8:	c3                   	retq   
    14b9:	0f 1f 80 00 00 00 00 	nopl   0x0(%rax)

00000000000014c0 <register_tm_clones>:
    14c0:	48 8d 3d a9 5e 00 00 	lea    0x5ea9(%rip),%rdi        # 7370 <__TMC_END__>
    14c7:	48 8d 35 a2 5e 00 00 	lea    0x5ea2(%rip),%rsi        # 7370 <__TMC_END__>
    14ce:	48 29 fe             	sub    %rdi,%rsi
    14d1:	48 89 f0             	mov    %rsi,%rax
    14d4:	48 c1 ee 3f          	shr    $0x3f,%rsi
    14d8:	48 c1 f8 03          	sar    $0x3,%rax
    14dc:	48 01 c6             	add    %rax,%rsi
    14df:	48 d1 fe             	sar    %rsi
    14e2:	74 14                	je     14f8 <register_tm_clones+0x38>
    14e4:	48 8b 05 05 5b 00 00 	mov    0x5b05(%rip),%rax        # 6ff0 <_ITM_registerTMCloneTable>
    14eb:	48 85 c0             	test   %rax,%rax
    14ee:	74 08                	je     14f8 <register_tm_clones+0x38>
    14f0:	ff e0                	jmpq   *%rax
    14f2:	66 0f 1f 44 00 00    	nopw   0x0(%rax,%rax,1)
    14f8:	c3                   	retq   
    14f9:	0f 1f 80 00 00 00 00 	nopl   0x0(%rax)

0000000000001500 <__do_global_dtors_aux>:
    1500:	f3 0f 1e fa          	endbr64 
    1504:	80 3d 9d 5e 00 00 00 	cmpb   $0x0,0x5e9d(%rip)        # 73a8 <completed.8061>
    150b:	75 2b                	jne    1538 <__do_global_dtors_aux+0x38>
    150d:	55                   	push   %rbp
    150e:	48 83 3d e2 5a 00 00 	cmpq   $0x0,0x5ae2(%rip)        # 6ff8 <__cxa_finalize@GLIBC_2.2.5>
    1515:	00 
    1516:	48 89 e5             	mov    %rsp,%rbp
    1519:	74 0c                	je     1527 <__do_global_dtors_aux+0x27>
    151b:	48 8b 3d e6 5a 00 00 	mov    0x5ae6(%rip),%rdi        # 7008 <__dso_handle>
    1522:	e8 19 fd ff ff       	callq  1240 <__cxa_finalize@plt>
    1527:	e8 64 ff ff ff       	callq  1490 <deregister_tm_clones>
    152c:	c6 05 75 5e 00 00 01 	movb   $0x1,0x5e75(%rip)        # 73a8 <completed.8061>
    1533:	5d                   	pop    %rbp
    1534:	c3                   	retq   
    1535:	0f 1f 00             	nopl   (%rax)
    1538:	c3                   	retq   
    1539:	0f 1f 80 00 00 00 00 	nopl   0x0(%rax)

0000000000001540 <frame_dummy>:
    1540:	f3 0f 1e fa          	endbr64 
    1544:	e9 77 ff ff ff       	jmpq   14c0 <register_tm_clones>

0000000000001549 <usage>:
    1549:	50                   	push   %rax
    154a:	58                   	pop    %rax
    154b:	48 83 ec 08          	sub    $0x8,%rsp
    154f:	48 89 fa             	mov    %rdi,%rdx
    1552:	83 3d 8f 5e 00 00 00 	cmpl   $0x0,0x5e8f(%rip)        # 73e8 <is_checker>
    1559:	74 50                	je     15ab <usage+0x62>
    155b:	48 8d 35 a6 2a 00 00 	lea    0x2aa6(%rip),%rsi        # 4008 <_IO_stdin_used+0x8>
    1562:	bf 01 00 00 00       	mov    $0x1,%edi
    1567:	b8 00 00 00 00       	mov    $0x0,%eax
    156c:	e8 3f fe ff ff       	callq  13b0 <__printf_chk@plt>
    1571:	48 8d 3d c8 2a 00 00 	lea    0x2ac8(%rip),%rdi        # 4040 <_IO_stdin_used+0x40>
    1578:	e8 23 fd ff ff       	callq  12a0 <puts@plt>
    157d:	48 8d 3d 34 2c 00 00 	lea    0x2c34(%rip),%rdi        # 41b8 <_IO_stdin_used+0x1b8>
    1584:	e8 17 fd ff ff       	callq  12a0 <puts@plt>
    1589:	48 8d 3d d8 2a 00 00 	lea    0x2ad8(%rip),%rdi        # 4068 <_IO_stdin_used+0x68>
    1590:	e8 0b fd ff ff       	callq  12a0 <puts@plt>
    1595:	48 8d 3d 36 2c 00 00 	lea    0x2c36(%rip),%rdi        # 41d2 <_IO_stdin_used+0x1d2>
    159c:	e8 ff fc ff ff       	callq  12a0 <puts@plt>
    15a1:	bf 00 00 00 00       	mov    $0x0,%edi
    15a6:	e8 55 fe ff ff       	callq  1400 <exit@plt>
    15ab:	48 8d 35 3c 2c 00 00 	lea    0x2c3c(%rip),%rsi        # 41ee <_IO_stdin_used+0x1ee>
    15b2:	bf 01 00 00 00       	mov    $0x1,%edi
    15b7:	b8 00 00 00 00       	mov    $0x0,%eax
    15bc:	e8 ef fd ff ff       	callq  13b0 <__printf_chk@plt>
    15c1:	48 8d 3d c8 2a 00 00 	lea    0x2ac8(%rip),%rdi        # 4090 <_IO_stdin_used+0x90>
    15c8:	e8 d3 fc ff ff       	callq  12a0 <puts@plt>
    15cd:	48 8d 3d e4 2a 00 00 	lea    0x2ae4(%rip),%rdi        # 40b8 <_IO_stdin_used+0xb8>
    15d4:	e8 c7 fc ff ff       	callq  12a0 <puts@plt>
    15d9:	48 8d 3d 2c 2c 00 00 	lea    0x2c2c(%rip),%rdi        # 420c <_IO_stdin_used+0x20c>
    15e0:	e8 bb fc ff ff       	callq  12a0 <puts@plt>
    15e5:	eb ba                	jmp    15a1 <usage+0x58>

00000000000015e7 <initialize_target>:
    15e7:	55                   	push   %rbp
    15e8:	53                   	push   %rbx
    15e9:	48 81 ec 00 10 00 00 	sub    $0x1000,%rsp
    15f0:	48 83 0c 24 00       	orq    $0x0,(%rsp)
    15f5:	48 81 ec 00 10 00 00 	sub    $0x1000,%rsp
    15fc:	48 83 0c 24 00       	orq    $0x0,(%rsp)
    1601:	48 81 ec 18 01 00 00 	sub    $0x118,%rsp
    1608:	89 f5                	mov    %esi,%ebp
    160a:	64 48 8b 04 25 28 00 	mov    %fs:0x28,%rax
    1611:	00 00 
    1613:	48 89 84 24 08 21 00 	mov    %rax,0x2108(%rsp)
    161a:	00 
    161b:	31 c0                	xor    %eax,%eax
    161d:	89 3d b5 5d 00 00    	mov    %edi,0x5db5(%rip)        # 73d8 <check_level>
    1623:	8b 3d e7 59 00 00    	mov    0x59e7(%rip),%edi        # 7010 <target_id>
    1629:	e8 0d 20 00 00       	callq  363b <gencookie>
    162e:	89 c7                	mov    %eax,%edi
    1630:	89 05 ae 5d 00 00    	mov    %eax,0x5dae(%rip)        # 73e4 <cookie>
    1636:	e8 00 20 00 00       	callq  363b <gencookie>
    163b:	89 05 9f 5d 00 00    	mov    %eax,0x5d9f(%rip)        # 73e0 <authkey>
    1641:	8b 05 c9 59 00 00    	mov    0x59c9(%rip),%eax        # 7010 <target_id>
    1647:	8d 78 01             	lea    0x1(%rax),%edi
    164a:	e8 21 fc ff ff       	callq  1270 <srandom@plt>
    164f:	e8 2c fd ff ff       	callq  1380 <random@plt>
    1654:	48 89 c7             	mov    %rax,%rdi
    1657:	e8 20 03 00 00       	callq  197c <scramble>
    165c:	89 c3                	mov    %eax,%ebx
    165e:	85 ed                	test   %ebp,%ebp
    1660:	75 54                	jne    16b6 <initialize_target+0xcf>
    1662:	b8 00 00 00 00       	mov    $0x0,%eax
    1667:	01 d8                	add    %ebx,%eax
    1669:	0f b7 c0             	movzwl %ax,%eax
    166c:	8d 04 c5 00 01 00 00 	lea    0x100(,%rax,8),%eax
    1673:	89 c0                	mov    %eax,%eax
    1675:	48 89 05 e4 5c 00 00 	mov    %rax,0x5ce4(%rip)        # 7360 <buf_offset>
    167c:	c6 05 85 69 00 00 72 	movb   $0x72,0x6985(%rip)        # 8008 <target_prefix>
    1683:	83 3d de 5c 00 00 00 	cmpl   $0x0,0x5cde(%rip)        # 7368 <notify>
    168a:	74 09                	je     1695 <initialize_target+0xae>
    168c:	83 3d 55 5d 00 00 00 	cmpl   $0x0,0x5d55(%rip)        # 73e8 <is_checker>
    1693:	74 3a                	je     16cf <initialize_target+0xe8>
    1695:	48 8b 84 24 08 21 00 	mov    0x2108(%rsp),%rax
    169c:	00 
    169d:	64 48 33 04 25 28 00 	xor    %fs:0x28,%rax
    16a4:	00 00 
    16a6:	0f 85 db 00 00 00    	jne    1787 <initialize_target+0x1a0>
    16ac:	48 81 c4 18 21 00 00 	add    $0x2118,%rsp
    16b3:	5b                   	pop    %rbx
    16b4:	5d                   	pop    %rbp
    16b5:	c3                   	retq   
    16b6:	bf 00 00 00 00       	mov    $0x0,%edi
    16bb:	e8 b0 fc ff ff       	callq  1370 <time@plt>
    16c0:	48 89 c7             	mov    %rax,%rdi
    16c3:	e8 a8 fb ff ff       	callq  1270 <srandom@plt>
    16c8:	e8 b3 fc ff ff       	callq  1380 <random@plt>
    16cd:	eb 98                	jmp    1667 <initialize_target+0x80>
    16cf:	48 89 e7             	mov    %rsp,%rdi
    16d2:	be 00 01 00 00       	mov    $0x100,%esi
    16d7:	e8 14 fd ff ff       	callq  13f0 <gethostname@plt>
    16dc:	89 c5                	mov    %eax,%ebp
    16de:	85 c0                	test   %eax,%eax
    16e0:	75 26                	jne    1708 <initialize_target+0x121>
    16e2:	89 c3                	mov    %eax,%ebx
    16e4:	48 63 c3             	movslq %ebx,%rax
    16e7:	48 8d 15 52 59 00 00 	lea    0x5952(%rip),%rdx        # 7040 <host_table>
    16ee:	48 8b 3c c2          	mov    (%rdx,%rax,8),%rdi
    16f2:	48 85 ff             	test   %rdi,%rdi
    16f5:	74 2c                	je     1723 <initialize_target+0x13c>
    16f7:	48 89 e6             	mov    %rsp,%rsi
    16fa:	e8 51 fb ff ff       	callq  1250 <strcasecmp@plt>
    16ff:	85 c0                	test   %eax,%eax
    1701:	74 1b                	je     171e <initialize_target+0x137>
    1703:	83 c3 01             	add    $0x1,%ebx
    1706:	eb dc                	jmp    16e4 <initialize_target+0xfd>
    1708:	48 8d 3d d9 29 00 00 	lea    0x29d9(%rip),%rdi        # 40e8 <_IO_stdin_used+0xe8>
    170f:	e8 8c fb ff ff       	callq  12a0 <puts@plt>
    1714:	bf 08 00 00 00       	mov    $0x8,%edi
    1719:	e8 e2 fc ff ff       	callq  1400 <exit@plt>
    171e:	bd 01 00 00 00       	mov    $0x1,%ebp
    1723:	85 ed                	test   %ebp,%ebp
    1725:	74 3d                	je     1764 <initialize_target+0x17d>
    1727:	48 8d bc 24 00 01 00 	lea    0x100(%rsp),%rdi
    172e:	00 
    172f:	e8 4c 1c 00 00       	callq  3380 <init_driver>
    1734:	85 c0                	test   %eax,%eax
    1736:	0f 89 59 ff ff ff    	jns    1695 <initialize_target+0xae>
    173c:	48 8d 94 24 00 01 00 	lea    0x100(%rsp),%rdx
    1743:	00 
    1744:	48 8d 35 15 2a 00 00 	lea    0x2a15(%rip),%rsi        # 4160 <_IO_stdin_used+0x160>
    174b:	bf 01 00 00 00       	mov    $0x1,%edi
    1750:	b8 00 00 00 00       	mov    $0x0,%eax
    1755:	e8 56 fc ff ff       	callq  13b0 <__printf_chk@plt>
    175a:	bf 08 00 00 00       	mov    $0x8,%edi
    175f:	e8 9c fc ff ff       	callq  1400 <exit@plt>
    1764:	48 89 e2             	mov    %rsp,%rdx
    1767:	48 8d 35 b2 29 00 00 	lea    0x29b2(%rip),%rsi        # 4120 <_IO_stdin_used+0x120>
    176e:	bf 01 00 00 00       	mov    $0x1,%edi
    1773:	b8 00 00 00 00       	mov    $0x0,%eax
    1778:	e8 33 fc ff ff       	callq  13b0 <__printf_chk@plt>
    177d:	bf 08 00 00 00       	mov    $0x8,%edi
    1782:	e8 79 fc ff ff       	callq  1400 <exit@plt>
    1787:	e8 34 fb ff ff       	callq  12c0 <__stack_chk_fail@plt>

000000000000178c <main>:
    178c:	f3 0f 1e fa          	endbr64 
    1790:	41 56                	push   %r14
    1792:	41 55                	push   %r13
    1794:	41 54                	push   %r12
    1796:	55                   	push   %rbp
    1797:	53                   	push   %rbx
    1798:	89 fd                	mov    %edi,%ebp
    179a:	48 89 f3             	mov    %rsi,%rbx
    179d:	48 8d 35 7f 0e 00 00 	lea    0xe7f(%rip),%rsi        # 2623 <seghandler>
    17a4:	bf 0b 00 00 00       	mov    $0xb,%edi
    17a9:	e8 72 fb ff ff       	callq  1320 <signal@plt>
    17ae:	48 8d 35 14 0e 00 00 	lea    0xe14(%rip),%rsi        # 25c9 <bushandler>
    17b5:	bf 07 00 00 00       	mov    $0x7,%edi
    17ba:	e8 61 fb ff ff       	callq  1320 <signal@plt>
    17bf:	48 8d 35 b7 0e 00 00 	lea    0xeb7(%rip),%rsi        # 267d <illegalhandler>
    17c6:	bf 04 00 00 00       	mov    $0x4,%edi
    17cb:	e8 50 fb ff ff       	callq  1320 <signal@plt>
    17d0:	83 3d 11 5c 00 00 00 	cmpl   $0x0,0x5c11(%rip)        # 73e8 <is_checker>
    17d7:	75 26                	jne    17ff <main+0x73>
    17d9:	4c 8d 25 4d 2a 00 00 	lea    0x2a4d(%rip),%r12        # 422d <_IO_stdin_used+0x22d>
    17e0:	48 8b 05 99 5b 00 00 	mov    0x5b99(%rip),%rax        # 7380 <stdin@@GLIBC_2.2.5>
    17e7:	48 89 05 e2 5b 00 00 	mov    %rax,0x5be2(%rip)        # 73d0 <infile>
    17ee:	41 bd 00 00 00 00    	mov    $0x0,%r13d
    17f4:	41 be 00 00 00 00    	mov    $0x0,%r14d
    17fa:	e9 8d 00 00 00       	jmpq   188c <main+0x100>
    17ff:	48 8d 35 d1 0e 00 00 	lea    0xed1(%rip),%rsi        # 26d7 <sigalrmhandler>
    1806:	bf 0e 00 00 00       	mov    $0xe,%edi
    180b:	e8 10 fb ff ff       	callq  1320 <signal@plt>
    1810:	bf 05 00 00 00       	mov    $0x5,%edi
    1815:	e8 d6 fa ff ff       	callq  12f0 <alarm@plt>
    181a:	4c 8d 25 04 2a 00 00 	lea    0x2a04(%rip),%r12        # 4225 <_IO_stdin_used+0x225>
    1821:	eb bd                	jmp    17e0 <main+0x54>
    1823:	48 8b 3b             	mov    (%rbx),%rdi
    1826:	e8 1e fd ff ff       	callq  1549 <usage>
    182b:	48 8d 35 7b 2c 00 00 	lea    0x2c7b(%rip),%rsi        # 44ad <_IO_stdin_used+0x4ad>
    1832:	48 8b 3d 4f 5b 00 00 	mov    0x5b4f(%rip),%rdi        # 7388 <optarg@@GLIBC_2.2.5>
    1839:	e8 82 fb ff ff       	callq  13c0 <fopen@plt>
    183e:	48 89 05 8b 5b 00 00 	mov    %rax,0x5b8b(%rip)        # 73d0 <infile>
    1845:	48 85 c0             	test   %rax,%rax
    1848:	75 42                	jne    188c <main+0x100>
    184a:	48 8b 0d 37 5b 00 00 	mov    0x5b37(%rip),%rcx        # 7388 <optarg@@GLIBC_2.2.5>
    1851:	48 8d 15 da 29 00 00 	lea    0x29da(%rip),%rdx        # 4232 <_IO_stdin_used+0x232>
    1858:	be 01 00 00 00       	mov    $0x1,%esi
    185d:	48 8b 3d 3c 5b 00 00 	mov    0x5b3c(%rip),%rdi        # 73a0 <stderr@@GLIBC_2.2.5>
    1864:	e8 b7 fb ff ff       	callq  1420 <__fprintf_chk@plt>
    1869:	b8 01 00 00 00       	mov    $0x1,%eax
    186e:	e9 db 00 00 00       	jmpq   194e <main+0x1c2>
    1873:	ba 10 00 00 00       	mov    $0x10,%edx
    1878:	be 00 00 00 00       	mov    $0x0,%esi
    187d:	48 8b 3d 04 5b 00 00 	mov    0x5b04(%rip),%rdi        # 7388 <optarg@@GLIBC_2.2.5>
    1884:	e8 57 fb ff ff       	callq  13e0 <strtoul@plt>
    1889:	41 89 c6             	mov    %eax,%r14d
    188c:	4c 89 e2             	mov    %r12,%rdx
    188f:	48 89 de             	mov    %rbx,%rsi
    1892:	89 ef                	mov    %ebp,%edi
    1894:	e8 37 fb ff ff       	callq  13d0 <getopt@plt>
    1899:	3c ff                	cmp    $0xff,%al
    189b:	74 65                	je     1902 <main+0x176>
    189d:	0f be c8             	movsbl %al,%ecx
    18a0:	83 e8 61             	sub    $0x61,%eax
    18a3:	3c 10                	cmp    $0x10,%al
    18a5:	77 3b                	ja     18e2 <main+0x156>
    18a7:	0f b6 c0             	movzbl %al,%eax
    18aa:	48 8d 15 bf 29 00 00 	lea    0x29bf(%rip),%rdx        # 4270 <_IO_stdin_used+0x270>
    18b1:	48 63 04 82          	movslq (%rdx,%rax,4),%rax
    18b5:	48 01 d0             	add    %rdx,%rax
    18b8:	3e ff e0             	notrack jmpq *%rax
    18bb:	ba 0a 00 00 00       	mov    $0xa,%edx
    18c0:	be 00 00 00 00       	mov    $0x0,%esi
    18c5:	48 8b 3d bc 5a 00 00 	mov    0x5abc(%rip),%rdi        # 7388 <optarg@@GLIBC_2.2.5>
    18cc:	e8 7f fa ff ff       	callq  1350 <strtol@plt>
    18d1:	41 89 c5             	mov    %eax,%r13d
    18d4:	eb b6                	jmp    188c <main+0x100>
    18d6:	c7 05 88 5a 00 00 00 	movl   $0x0,0x5a88(%rip)        # 7368 <notify>
    18dd:	00 00 00 
    18e0:	eb aa                	jmp    188c <main+0x100>
    18e2:	89 ca                	mov    %ecx,%edx
    18e4:	48 8d 35 64 29 00 00 	lea    0x2964(%rip),%rsi        # 424f <_IO_stdin_used+0x24f>
    18eb:	bf 01 00 00 00       	mov    $0x1,%edi
    18f0:	b8 00 00 00 00       	mov    $0x0,%eax
    18f5:	e8 b6 fa ff ff       	callq  13b0 <__printf_chk@plt>
    18fa:	48 8b 3b             	mov    (%rbx),%rdi
    18fd:	e8 47 fc ff ff       	callq  1549 <usage>
    1902:	be 01 00 00 00       	mov    $0x1,%esi
    1907:	44 89 ef             	mov    %r13d,%edi
    190a:	e8 d8 fc ff ff       	callq  15e7 <initialize_target>
    190f:	83 3d d2 5a 00 00 00 	cmpl   $0x0,0x5ad2(%rip)        # 73e8 <is_checker>
    1916:	74 09                	je     1921 <main+0x195>
    1918:	44 39 35 c1 5a 00 00 	cmp    %r14d,0x5ac1(%rip)        # 73e0 <authkey>
    191f:	75 36                	jne    1957 <main+0x1cb>
    1921:	8b 15 bd 5a 00 00    	mov    0x5abd(%rip),%edx        # 73e4 <cookie>
    1927:	48 8d 35 34 29 00 00 	lea    0x2934(%rip),%rsi        # 4262 <_IO_stdin_used+0x262>
    192e:	bf 01 00 00 00       	mov    $0x1,%edi
    1933:	b8 00 00 00 00       	mov    $0x0,%eax
    1938:	e8 73 fa ff ff       	callq  13b0 <__printf_chk@plt>
    193d:	48 8b 3d 1c 5a 00 00 	mov    0x5a1c(%rip),%rdi        # 7360 <buf_offset>
    1944:	e8 eb 0d 00 00       	callq  2734 <launch>
    1949:	b8 00 00 00 00       	mov    $0x0,%eax
    194e:	5b                   	pop    %rbx
    194f:	5d                   	pop    %rbp
    1950:	41 5c                	pop    %r12
    1952:	41 5d                	pop    %r13
    1954:	41 5e                	pop    %r14
    1956:	c3                   	retq   
    1957:	44 89 f2             	mov    %r14d,%edx
    195a:	48 8d 35 27 28 00 00 	lea    0x2827(%rip),%rsi        # 4188 <_IO_stdin_used+0x188>
    1961:	bf 01 00 00 00       	mov    $0x1,%edi
    1966:	b8 00 00 00 00       	mov    $0x0,%eax
    196b:	e8 40 fa ff ff       	callq  13b0 <__printf_chk@plt>
    1970:	b8 00 00 00 00       	mov    $0x0,%eax
    1975:	e8 9e 08 00 00       	callq  2218 <check_fail>
    197a:	eb a5                	jmp    1921 <main+0x195>

000000000000197c <scramble>:
    197c:	f3 0f 1e fa          	endbr64 
    1980:	48 83 ec 38          	sub    $0x38,%rsp
    1984:	64 48 8b 04 25 28 00 	mov    %fs:0x28,%rax
    198b:	00 00 
    198d:	48 89 44 24 28       	mov    %rax,0x28(%rsp)
    1992:	31 c0                	xor    %eax,%eax
    1994:	83 f8 09             	cmp    $0x9,%eax
    1997:	77 12                	ja     19ab <scramble+0x2f>
    1999:	69 d0 f2 98 00 00    	imul   $0x98f2,%eax,%edx
    199f:	01 fa                	add    %edi,%edx
    19a1:	89 c1                	mov    %eax,%ecx
    19a3:	89 14 8c             	mov    %edx,(%rsp,%rcx,4)
    19a6:	83 c0 01             	add    $0x1,%eax
    19a9:	eb e9                	jmp    1994 <scramble+0x18>
    19ab:	8b 44 24 04          	mov    0x4(%rsp),%eax
    19af:	69 c0 f2 1d 00 00    	imul   $0x1df2,%eax,%eax
    19b5:	89 44 24 04          	mov    %eax,0x4(%rsp)
    19b9:	8b 44 24 04          	mov    0x4(%rsp),%eax
    19bd:	69 c0 6c 16 00 00    	imul   $0x166c,%eax,%eax
    19c3:	89 44 24 04          	mov    %eax,0x4(%rsp)
    19c7:	8b 44 24 08          	mov    0x8(%rsp),%eax
    19cb:	69 c0 a1 22 00 00    	imul   $0x22a1,%eax,%eax
    19d1:	89 44 24 08          	mov    %eax,0x8(%rsp)
    19d5:	8b 44 24 1c          	mov    0x1c(%rsp),%eax
    19d9:	69 c0 57 26 00 00    	imul   $0x2657,%eax,%eax
    19df:	89 44 24 1c          	mov    %eax,0x1c(%rsp)
    19e3:	8b 44 24 14          	mov    0x14(%rsp),%eax
    19e7:	69 c0 6f 34 00 00    	imul   $0x346f,%eax,%eax
    19ed:	89 44 24 14          	mov    %eax,0x14(%rsp)
    19f1:	8b 44 24 14          	mov    0x14(%rsp),%eax
    19f5:	69 c0 14 78 00 00    	imul   $0x7814,%eax,%eax
    19fb:	89 44 24 14          	mov    %eax,0x14(%rsp)
    19ff:	8b 44 24 1c          	mov    0x1c(%rsp),%eax
    1a03:	69 c0 1f f3 00 00    	imul   $0xf31f,%eax,%eax
    1a09:	89 44 24 1c          	mov    %eax,0x1c(%rsp)
    1a0d:	8b 44 24 14          	mov    0x14(%rsp),%eax
    1a11:	69 c0 84 2b 00 00    	imul   $0x2b84,%eax,%eax
    1a17:	89 44 24 14          	mov    %eax,0x14(%rsp)
    1a1b:	8b 44 24 08          	mov    0x8(%rsp),%eax
    1a1f:	69 c0 e5 19 00 00    	imul   $0x19e5,%eax,%eax
    1a25:	89 44 24 08          	mov    %eax,0x8(%rsp)
    1a29:	8b 44 24 24          	mov    0x24(%rsp),%eax
    1a2d:	69 c0 75 54 00 00    	imul   $0x5475,%eax,%eax
    1a33:	89 44 24 24          	mov    %eax,0x24(%rsp)
    1a37:	8b 04 24             	mov    (%rsp),%eax
    1a3a:	69 c0 66 b8 00 00    	imul   $0xb866,%eax,%eax
    1a40:	89 04 24             	mov    %eax,(%rsp)
    1a43:	8b 44 24 14          	mov    0x14(%rsp),%eax
    1a47:	69 c0 93 76 00 00    	imul   $0x7693,%eax,%eax
    1a4d:	89 44 24 14          	mov    %eax,0x14(%rsp)
    1a51:	8b 44 24 24          	mov    0x24(%rsp),%eax
    1a55:	69 c0 59 92 00 00    	imul   $0x9259,%eax,%eax
    1a5b:	89 44 24 24          	mov    %eax,0x24(%rsp)
    1a5f:	8b 44 24 14          	mov    0x14(%rsp),%eax
    1a63:	69 c0 23 8f 00 00    	imul   $0x8f23,%eax,%eax
    1a69:	89 44 24 14          	mov    %eax,0x14(%rsp)
    1a6d:	8b 44 24 0c          	mov    0xc(%rsp),%eax
    1a71:	69 c0 c5 26 00 00    	imul   $0x26c5,%eax,%eax
    1a77:	89 44 24 0c          	mov    %eax,0xc(%rsp)
    1a7b:	8b 44 24 04          	mov    0x4(%rsp),%eax
    1a7f:	69 c0 f7 d4 00 00    	imul   $0xd4f7,%eax,%eax
    1a85:	89 44 24 04          	mov    %eax,0x4(%rsp)
    1a89:	8b 44 24 0c          	mov    0xc(%rsp),%eax
    1a8d:	69 c0 76 49 00 00    	imul   $0x4976,%eax,%eax
    1a93:	89 44 24 0c          	mov    %eax,0xc(%rsp)
    1a97:	8b 44 24 24          	mov    0x24(%rsp),%eax
    1a9b:	69 c0 5e da 00 00    	imul   $0xda5e,%eax,%eax
    1aa1:	89 44 24 24          	mov    %eax,0x24(%rsp)
    1aa5:	8b 44 24 08          	mov    0x8(%rsp),%eax
    1aa9:	69 c0 6d c2 00 00    	imul   $0xc26d,%eax,%eax
    1aaf:	89 44 24 08          	mov    %eax,0x8(%rsp)
    1ab3:	8b 44 24 1c          	mov    0x1c(%rsp),%eax
    1ab7:	69 c0 69 83 00 00    	imul   $0x8369,%eax,%eax
    1abd:	89 44 24 1c          	mov    %eax,0x1c(%rsp)
    1ac1:	8b 44 24 04          	mov    0x4(%rsp),%eax
    1ac5:	69 c0 13 ca 00 00    	imul   $0xca13,%eax,%eax
    1acb:	89 44 24 04          	mov    %eax,0x4(%rsp)
    1acf:	8b 44 24 20          	mov    0x20(%rsp),%eax
    1ad3:	69 c0 38 ce 00 00    	imul   $0xce38,%eax,%eax
    1ad9:	89 44 24 20          	mov    %eax,0x20(%rsp)
    1add:	8b 44 24 18          	mov    0x18(%rsp),%eax
    1ae1:	69 c0 31 78 00 00    	imul   $0x7831,%eax,%eax
    1ae7:	89 44 24 18          	mov    %eax,0x18(%rsp)
    1aeb:	8b 44 24 18          	mov    0x18(%rsp),%eax
    1aef:	69 c0 f9 1c 00 00    	imul   $0x1cf9,%eax,%eax
    1af5:	89 44 24 18          	mov    %eax,0x18(%rsp)
    1af9:	8b 44 24 14          	mov    0x14(%rsp),%eax
    1afd:	69 c0 76 21 00 00    	imul   $0x2176,%eax,%eax
    1b03:	89 44 24 14          	mov    %eax,0x14(%rsp)
    1b07:	8b 44 24 24          	mov    0x24(%rsp),%eax
    1b0b:	69 c0 9b 72 00 00    	imul   $0x729b,%eax,%eax
    1b11:	89 44 24 24          	mov    %eax,0x24(%rsp)
    1b15:	8b 04 24             	mov    (%rsp),%eax
    1b18:	69 c0 bb 21 00 00    	imul   $0x21bb,%eax,%eax
    1b1e:	89 04 24             	mov    %eax,(%rsp)
    1b21:	8b 44 24 18          	mov    0x18(%rsp),%eax
    1b25:	69 c0 f4 6f 00 00    	imul   $0x6ff4,%eax,%eax
    1b2b:	89 44 24 18          	mov    %eax,0x18(%rsp)
    1b2f:	8b 44 24 24          	mov    0x24(%rsp),%eax
    1b33:	69 c0 da 46 00 00    	imul   $0x46da,%eax,%eax
    1b39:	89 44 24 24          	mov    %eax,0x24(%rsp)
    1b3d:	8b 44 24 1c          	mov    0x1c(%rsp),%eax
    1b41:	69 c0 19 f0 00 00    	imul   $0xf019,%eax,%eax
    1b47:	89 44 24 1c          	mov    %eax,0x1c(%rsp)
    1b4b:	8b 44 24 20          	mov    0x20(%rsp),%eax
    1b4f:	69 c0 fc c1 00 00    	imul   $0xc1fc,%eax,%eax
    1b55:	89 44 24 20          	mov    %eax,0x20(%rsp)
    1b59:	8b 44 24 20          	mov    0x20(%rsp),%eax
    1b5d:	69 c0 57 b2 00 00    	imul   $0xb257,%eax,%eax
    1b63:	89 44 24 20          	mov    %eax,0x20(%rsp)
    1b67:	8b 44 24 14          	mov    0x14(%rsp),%eax
    1b6b:	69 c0 74 b0 00 00    	imul   $0xb074,%eax,%eax
    1b71:	89 44 24 14          	mov    %eax,0x14(%rsp)
    1b75:	8b 44 24 0c          	mov    0xc(%rsp),%eax
    1b79:	69 c0 89 77 00 00    	imul   $0x7789,%eax,%eax
    1b7f:	89 44 24 0c          	mov    %eax,0xc(%rsp)
    1b83:	8b 44 24 18          	mov    0x18(%rsp),%eax
    1b87:	69 c0 6b 8d 00 00    	imul   $0x8d6b,%eax,%eax
    1b8d:	89 44 24 18          	mov    %eax,0x18(%rsp)
    1b91:	8b 44 24 20          	mov    0x20(%rsp),%eax
    1b95:	69 c0 be 69 00 00    	imul   $0x69be,%eax,%eax
    1b9b:	89 44 24 20          	mov    %eax,0x20(%rsp)
    1b9f:	8b 44 24 08          	mov    0x8(%rsp),%eax
    1ba3:	69 c0 70 f6 00 00    	imul   $0xf670,%eax,%eax
    1ba9:	89 44 24 08          	mov    %eax,0x8(%rsp)
    1bad:	8b 44 24 0c          	mov    0xc(%rsp),%eax
    1bb1:	69 c0 b1 14 00 00    	imul   $0x14b1,%eax,%eax
    1bb7:	89 44 24 0c          	mov    %eax,0xc(%rsp)
    1bbb:	8b 44 24 08          	mov    0x8(%rsp),%eax
    1bbf:	69 c0 b3 31 00 00    	imul   $0x31b3,%eax,%eax
    1bc5:	89 44 24 08          	mov    %eax,0x8(%rsp)
    1bc9:	8b 44 24 24          	mov    0x24(%rsp),%eax
    1bcd:	69 c0 b7 00 00 00    	imul   $0xb7,%eax,%eax
    1bd3:	89 44 24 24          	mov    %eax,0x24(%rsp)
    1bd7:	8b 44 24 18          	mov    0x18(%rsp),%eax
    1bdb:	69 c0 19 a3 00 00    	imul   $0xa319,%eax,%eax
    1be1:	89 44 24 18          	mov    %eax,0x18(%rsp)
    1be5:	8b 44 24 08          	mov    0x8(%rsp),%eax
    1be9:	69 c0 06 2d 00 00    	imul   $0x2d06,%eax,%eax
    1bef:	89 44 24 08          	mov    %eax,0x8(%rsp)
    1bf3:	8b 44 24 20          	mov    0x20(%rsp),%eax
    1bf7:	69 c0 81 5c 00 00    	imul   $0x5c81,%eax,%eax
    1bfd:	89 44 24 20          	mov    %eax,0x20(%rsp)
    1c01:	8b 44 24 04          	mov    0x4(%rsp),%eax
    1c05:	69 c0 e8 78 00 00    	imul   $0x78e8,%eax,%eax
    1c0b:	89 44 24 04          	mov    %eax,0x4(%rsp)
    1c0f:	8b 44 24 14          	mov    0x14(%rsp),%eax
    1c13:	69 c0 11 9c 00 00    	imul   $0x9c11,%eax,%eax
    1c19:	89 44 24 14          	mov    %eax,0x14(%rsp)
    1c1d:	8b 44 24 04          	mov    0x4(%rsp),%eax
    1c21:	69 c0 fa 10 00 00    	imul   $0x10fa,%eax,%eax
    1c27:	89 44 24 04          	mov    %eax,0x4(%rsp)
    1c2b:	8b 44 24 24          	mov    0x24(%rsp),%eax
    1c2f:	69 c0 12 2e 00 00    	imul   $0x2e12,%eax,%eax
    1c35:	89 44 24 24          	mov    %eax,0x24(%rsp)
    1c39:	8b 04 24             	mov    (%rsp),%eax
    1c3c:	69 c0 7f 69 00 00    	imul   $0x697f,%eax,%eax
    1c42:	89 04 24             	mov    %eax,(%rsp)
    1c45:	8b 44 24 04          	mov    0x4(%rsp),%eax
    1c49:	69 c0 07 50 00 00    	imul   $0x5007,%eax,%eax
    1c4f:	89 44 24 04          	mov    %eax,0x4(%rsp)
    1c53:	8b 44 24 10          	mov    0x10(%rsp),%eax
    1c57:	69 c0 67 51 00 00    	imul   $0x5167,%eax,%eax
    1c5d:	89 44 24 10          	mov    %eax,0x10(%rsp)
    1c61:	8b 44 24 18          	mov    0x18(%rsp),%eax
    1c65:	69 c0 fb db 00 00    	imul   $0xdbfb,%eax,%eax
    1c6b:	89 44 24 18          	mov    %eax,0x18(%rsp)
    1c6f:	8b 44 24 04          	mov    0x4(%rsp),%eax
    1c73:	69 c0 f1 34 00 00    	imul   $0x34f1,%eax,%eax
    1c79:	89 44 24 04          	mov    %eax,0x4(%rsp)
    1c7d:	8b 44 24 08          	mov    0x8(%rsp),%eax
    1c81:	69 c0 1c f3 00 00    	imul   $0xf31c,%eax,%eax
    1c87:	89 44 24 08          	mov    %eax,0x8(%rsp)
    1c8b:	8b 44 24 24          	mov    0x24(%rsp),%eax
    1c8f:	69 c0 0c 41 00 00    	imul   $0x410c,%eax,%eax
    1c95:	89 44 24 24          	mov    %eax,0x24(%rsp)
    1c99:	8b 44 24 14          	mov    0x14(%rsp),%eax
    1c9d:	69 c0 4c 7b 00 00    	imul   $0x7b4c,%eax,%eax
    1ca3:	89 44 24 14          	mov    %eax,0x14(%rsp)
    1ca7:	8b 44 24 10          	mov    0x10(%rsp),%eax
    1cab:	69 c0 f9 77 00 00    	imul   $0x77f9,%eax,%eax
    1cb1:	89 44 24 10          	mov    %eax,0x10(%rsp)
    1cb5:	8b 44 24 04          	mov    0x4(%rsp),%eax
    1cb9:	69 c0 16 b5 00 00    	imul   $0xb516,%eax,%eax
    1cbf:	89 44 24 04          	mov    %eax,0x4(%rsp)
    1cc3:	8b 44 24 04          	mov    0x4(%rsp),%eax
    1cc7:	69 c0 3a e3 00 00    	imul   $0xe33a,%eax,%eax
    1ccd:	89 44 24 04          	mov    %eax,0x4(%rsp)
    1cd1:	8b 44 24 04          	mov    0x4(%rsp),%eax
    1cd5:	69 c0 fa 41 00 00    	imul   $0x41fa,%eax,%eax
    1cdb:	89 44 24 04          	mov    %eax,0x4(%rsp)
    1cdf:	8b 44 24 24          	mov    0x24(%rsp),%eax
    1ce3:	69 c0 f2 b4 00 00    	imul   $0xb4f2,%eax,%eax
    1ce9:	89 44 24 24          	mov    %eax,0x24(%rsp)
    1ced:	8b 44 24 10          	mov    0x10(%rsp),%eax
    1cf1:	69 c0 24 c5 00 00    	imul   $0xc524,%eax,%eax
    1cf7:	89 44 24 10          	mov    %eax,0x10(%rsp)
    1cfb:	8b 44 24 08          	mov    0x8(%rsp),%eax
    1cff:	69 c0 19 3c 00 00    	imul   $0x3c19,%eax,%eax
    1d05:	89 44 24 08          	mov    %eax,0x8(%rsp)
    1d09:	8b 44 24 18          	mov    0x18(%rsp),%eax
    1d0d:	69 c0 3e 89 00 00    	imul   $0x893e,%eax,%eax
    1d13:	89 44 24 18          	mov    %eax,0x18(%rsp)
    1d17:	8b 44 24 04          	mov    0x4(%rsp),%eax
    1d1b:	69 c0 bc d1 00 00    	imul   $0xd1bc,%eax,%eax
    1d21:	89 44 24 04          	mov    %eax,0x4(%rsp)
    1d25:	8b 04 24             	mov    (%rsp),%eax
    1d28:	69 c0 a1 86 00 00    	imul   $0x86a1,%eax,%eax
    1d2e:	89 04 24             	mov    %eax,(%rsp)
    1d31:	8b 44 24 24          	mov    0x24(%rsp),%eax
    1d35:	69 c0 b7 b6 00 00    	imul   $0xb6b7,%eax,%eax
    1d3b:	89 44 24 24          	mov    %eax,0x24(%rsp)
    1d3f:	8b 44 24 08          	mov    0x8(%rsp),%eax
    1d43:	69 c0 4a de 00 00    	imul   $0xde4a,%eax,%eax
    1d49:	89 44 24 08          	mov    %eax,0x8(%rsp)
    1d4d:	8b 44 24 10          	mov    0x10(%rsp),%eax
    1d51:	69 c0 08 35 00 00    	imul   $0x3508,%eax,%eax
    1d57:	89 44 24 10          	mov    %eax,0x10(%rsp)
    1d5b:	8b 44 24 1c          	mov    0x1c(%rsp),%eax
    1d5f:	69 c0 4a 35 00 00    	imul   $0x354a,%eax,%eax
    1d65:	89 44 24 1c          	mov    %eax,0x1c(%rsp)
    1d69:	8b 44 24 0c          	mov    0xc(%rsp),%eax
    1d6d:	69 c0 36 f6 00 00    	imul   $0xf636,%eax,%eax
    1d73:	89 44 24 0c          	mov    %eax,0xc(%rsp)
    1d77:	8b 44 24 14          	mov    0x14(%rsp),%eax
    1d7b:	69 c0 d8 b7 00 00    	imul   $0xb7d8,%eax,%eax
    1d81:	89 44 24 14          	mov    %eax,0x14(%rsp)
    1d85:	b8 00 00 00 00       	mov    $0x0,%eax
    1d8a:	ba 00 00 00 00       	mov    $0x0,%edx
    1d8f:	83 f8 09             	cmp    $0x9,%eax
    1d92:	77 0c                	ja     1da0 <scramble+0x424>
    1d94:	89 c1                	mov    %eax,%ecx
    1d96:	8b 0c 8c             	mov    (%rsp,%rcx,4),%ecx
    1d99:	01 ca                	add    %ecx,%edx
    1d9b:	83 c0 01             	add    $0x1,%eax
    1d9e:	eb ef                	jmp    1d8f <scramble+0x413>
    1da0:	48 8b 44 24 28       	mov    0x28(%rsp),%rax
    1da5:	64 48 33 04 25 28 00 	xor    %fs:0x28,%rax
    1dac:	00 00 
    1dae:	75 07                	jne    1db7 <scramble+0x43b>
    1db0:	89 d0                	mov    %edx,%eax
    1db2:	48 83 c4 38          	add    $0x38,%rsp
    1db6:	c3                   	retq   
    1db7:	e8 04 f5 ff ff       	callq  12c0 <__stack_chk_fail@plt>

0000000000001dbc <getbuf>:
    1dbc:	f3 0f 1e fa          	endbr64 
    1dc0:	48 83 ec 18          	sub    $0x18,%rsp
    1dc4:	48 89 e7             	mov    %rsp,%rdi
    1dc7:	e8 8a 04 00 00       	callq  2256 <Gets>
    1dcc:	b8 01 00 00 00       	mov    $0x1,%eax
    1dd1:	48 83 c4 18          	add    $0x18,%rsp
    1dd5:	c3                   	retq   

0000000000001dd6 <touch1>:
    1dd6:	f3 0f 1e fa          	endbr64 
    1dda:	50                   	push   %rax
    1ddb:	58                   	pop    %rax
    1ddc:	48 83 ec 08          	sub    $0x8,%rsp
    1de0:	c7 05 f2 55 00 00 01 	movl   $0x1,0x55f2(%rip)        # 73dc <vlevel>
    1de7:	00 00 00 
    1dea:	48 8d 3d 14 25 00 00 	lea    0x2514(%rip),%rdi        # 4305 <_IO_stdin_used+0x305>
    1df1:	e8 aa f4 ff ff       	callq  12a0 <puts@plt>
    1df6:	bf 01 00 00 00       	mov    $0x1,%edi
    1dfb:	e8 c9 06 00 00       	callq  24c9 <validate>
    1e00:	bf 00 00 00 00       	mov    $0x0,%edi
    1e05:	e8 f6 f5 ff ff       	callq  1400 <exit@plt>

0000000000001e0a <touch2>:
    1e0a:	f3 0f 1e fa          	endbr64 
    1e0e:	50                   	push   %rax
    1e0f:	58                   	pop    %rax
    1e10:	48 83 ec 08          	sub    $0x8,%rsp
    1e14:	89 fa                	mov    %edi,%edx
    1e16:	c7 05 bc 55 00 00 02 	movl   $0x2,0x55bc(%rip)        # 73dc <vlevel>
    1e1d:	00 00 00 
    1e20:	39 3d be 55 00 00    	cmp    %edi,0x55be(%rip)        # 73e4 <cookie>
    1e26:	74 2a                	je     1e52 <touch2+0x48>
    1e28:	48 8d 35 21 25 00 00 	lea    0x2521(%rip),%rsi        # 4350 <_IO_stdin_used+0x350>
    1e2f:	bf 01 00 00 00       	mov    $0x1,%edi
    1e34:	b8 00 00 00 00       	mov    $0x0,%eax
    1e39:	e8 72 f5 ff ff       	callq  13b0 <__printf_chk@plt>
    1e3e:	bf 02 00 00 00       	mov    $0x2,%edi
    1e43:	e8 55 07 00 00       	callq  259d <fail>
    1e48:	bf 00 00 00 00       	mov    $0x0,%edi
    1e4d:	e8 ae f5 ff ff       	callq  1400 <exit@plt>
    1e52:	48 8d 35 cf 24 00 00 	lea    0x24cf(%rip),%rsi        # 4328 <_IO_stdin_used+0x328>
    1e59:	bf 01 00 00 00       	mov    $0x1,%edi
    1e5e:	b8 00 00 00 00       	mov    $0x0,%eax
    1e63:	e8 48 f5 ff ff       	callq  13b0 <__printf_chk@plt>
    1e68:	bf 02 00 00 00       	mov    $0x2,%edi
    1e6d:	e8 57 06 00 00       	callq  24c9 <validate>
    1e72:	eb d4                	jmp    1e48 <touch2+0x3e>

0000000000001e74 <hexmatch>:
    1e74:	f3 0f 1e fa          	endbr64 
    1e78:	41 55                	push   %r13
    1e7a:	41 54                	push   %r12
    1e7c:	55                   	push   %rbp
    1e7d:	53                   	push   %rbx
    1e7e:	48 81 ec 88 00 00 00 	sub    $0x88,%rsp
    1e85:	89 fd                	mov    %edi,%ebp
    1e87:	48 89 f3             	mov    %rsi,%rbx
    1e8a:	41 bc 28 00 00 00    	mov    $0x28,%r12d
    1e90:	64 49 8b 04 24       	mov    %fs:(%r12),%rax
    1e95:	48 89 44 24 78       	mov    %rax,0x78(%rsp)
    1e9a:	31 c0                	xor    %eax,%eax
    1e9c:	e8 df f4 ff ff       	callq  1380 <random@plt>
    1ea1:	48 89 c1             	mov    %rax,%rcx
    1ea4:	48 ba 0b d7 a3 70 3d 	movabs $0xa3d70a3d70a3d70b,%rdx
    1eab:	0a d7 a3 
    1eae:	48 f7 ea             	imul   %rdx
    1eb1:	48 01 ca             	add    %rcx,%rdx
    1eb4:	48 c1 fa 06          	sar    $0x6,%rdx
    1eb8:	48 89 c8             	mov    %rcx,%rax
    1ebb:	48 c1 f8 3f          	sar    $0x3f,%rax
    1ebf:	48 29 c2             	sub    %rax,%rdx
    1ec2:	48 8d 04 92          	lea    (%rdx,%rdx,4),%rax
    1ec6:	48 8d 04 80          	lea    (%rax,%rax,4),%rax
    1eca:	48 c1 e0 02          	shl    $0x2,%rax
    1ece:	48 29 c1             	sub    %rax,%rcx
    1ed1:	4c 8d 2c 0c          	lea    (%rsp,%rcx,1),%r13
    1ed5:	41 89 e8             	mov    %ebp,%r8d
    1ed8:	48 8d 0d 43 24 00 00 	lea    0x2443(%rip),%rcx        # 4322 <_IO_stdin_used+0x322>
    1edf:	48 c7 c2 ff ff ff ff 	mov    $0xffffffffffffffff,%rdx
    1ee6:	be 01 00 00 00       	mov    $0x1,%esi
    1eeb:	4c 89 ef             	mov    %r13,%rdi
    1eee:	b8 00 00 00 00       	mov    $0x0,%eax
    1ef3:	e8 48 f5 ff ff       	callq  1440 <__sprintf_chk@plt>
    1ef8:	ba 09 00 00 00       	mov    $0x9,%edx
    1efd:	4c 89 ee             	mov    %r13,%rsi
    1f00:	48 89 df             	mov    %rbx,%rdi
    1f03:	e8 78 f3 ff ff       	callq  1280 <strncmp@plt>
    1f08:	85 c0                	test   %eax,%eax
    1f0a:	0f 94 c0             	sete   %al
    1f0d:	48 8b 5c 24 78       	mov    0x78(%rsp),%rbx
    1f12:	64 49 33 1c 24       	xor    %fs:(%r12),%rbx
    1f17:	75 11                	jne    1f2a <hexmatch+0xb6>
    1f19:	0f b6 c0             	movzbl %al,%eax
    1f1c:	48 81 c4 88 00 00 00 	add    $0x88,%rsp
    1f23:	5b                   	pop    %rbx
    1f24:	5d                   	pop    %rbp
    1f25:	41 5c                	pop    %r12
    1f27:	41 5d                	pop    %r13
    1f29:	c3                   	retq   
    1f2a:	e8 91 f3 ff ff       	callq  12c0 <__stack_chk_fail@plt>

0000000000001f2f <touch3>:
    1f2f:	f3 0f 1e fa          	endbr64 
    1f33:	53                   	push   %rbx
    1f34:	48 89 fb             	mov    %rdi,%rbx
    1f37:	c7 05 9b 54 00 00 03 	movl   $0x3,0x549b(%rip)        # 73dc <vlevel>
    1f3e:	00 00 00 
    1f41:	48 89 fe             	mov    %rdi,%rsi
    1f44:	8b 3d 9a 54 00 00    	mov    0x549a(%rip),%edi        # 73e4 <cookie>
    1f4a:	e8 25 ff ff ff       	callq  1e74 <hexmatch>
    1f4f:	85 c0                	test   %eax,%eax
    1f51:	74 2d                	je     1f80 <touch3+0x51>
    1f53:	48 89 da             	mov    %rbx,%rdx
    1f56:	48 8d 35 1b 24 00 00 	lea    0x241b(%rip),%rsi        # 4378 <_IO_stdin_used+0x378>
    1f5d:	bf 01 00 00 00       	mov    $0x1,%edi
    1f62:	b8 00 00 00 00       	mov    $0x0,%eax
    1f67:	e8 44 f4 ff ff       	callq  13b0 <__printf_chk@plt>
    1f6c:	bf 03 00 00 00       	mov    $0x3,%edi
    1f71:	e8 53 05 00 00       	callq  24c9 <validate>
    1f76:	bf 00 00 00 00       	mov    $0x0,%edi
    1f7b:	e8 80 f4 ff ff       	callq  1400 <exit@plt>
    1f80:	48 89 da             	mov    %rbx,%rdx
    1f83:	48 8d 35 16 24 00 00 	lea    0x2416(%rip),%rsi        # 43a0 <_IO_stdin_used+0x3a0>
    1f8a:	bf 01 00 00 00       	mov    $0x1,%edi
    1f8f:	b8 00 00 00 00       	mov    $0x0,%eax
    1f94:	e8 17 f4 ff ff       	callq  13b0 <__printf_chk@plt>
    1f99:	bf 03 00 00 00       	mov    $0x3,%edi
    1f9e:	e8 fa 05 00 00       	callq  259d <fail>
    1fa3:	eb d1                	jmp    1f76 <touch3+0x47>

0000000000001fa5 <test>:
    1fa5:	f3 0f 1e fa          	endbr64 
    1fa9:	48 83 ec 08          	sub    $0x8,%rsp
    1fad:	b8 00 00 00 00       	mov    $0x0,%eax
    1fb2:	e8 05 fe ff ff       	callq  1dbc <getbuf>
    1fb7:	89 c2                	mov    %eax,%edx
    1fb9:	48 8d 35 08 24 00 00 	lea    0x2408(%rip),%rsi        # 43c8 <_IO_stdin_used+0x3c8>
    1fc0:	bf 01 00 00 00       	mov    $0x1,%edi
    1fc5:	b8 00 00 00 00       	mov    $0x0,%eax
    1fca:	e8 e1 f3 ff ff       	callq  13b0 <__printf_chk@plt>
    1fcf:	48 83 c4 08          	add    $0x8,%rsp
    1fd3:	c3                   	retq   

0000000000001fd4 <start_farm>:
    1fd4:	f3 0f 1e fa          	endbr64 
    1fd8:	b8 01 00 00 00       	mov    $0x1,%eax
    1fdd:	c3                   	retq   

0000000000001fde <addval_210>:
    1fde:	f3 0f 1e fa          	endbr64 
    1fe2:	8d 87 73 d8 90 90    	lea    -0x6f6f278d(%rdi),%eax
    1fe8:	c3                   	retq   

0000000000001fe9 <getval_441>:
    1fe9:	f3 0f 1e fa          	endbr64 
    1fed:	b8 48 89 c7 c7       	mov    $0xc7c78948,%eax
    1ff2:	c3                   	retq   

0000000000001ff3 <setval_269>:
    1ff3:	f3 0f 1e fa          	endbr64 
    1ff7:	c7 07 48 89 c7 90    	movl   $0x90c78948,(%rdi)
    1ffd:	c3                   	retq   

0000000000001ffe <addval_184>:
    1ffe:	f3 0f 1e fa          	endbr64 
    2002:	8d 87 48 89 c7 92    	lea    -0x6d3876b8(%rdi),%eax
    2008:	c3                   	retq   

0000000000002009 <setval_400>:
    2009:	f3 0f 1e fa          	endbr64 
    200d:	c7 07 f7 4a 58 c3    	movl   $0xc3584af7,(%rdi)
    2013:	c3                   	retq   

0000000000002014 <setval_435>:
    2014:	f3 0f 1e fa          	endbr64 
    2018:	c7 07 62 58 90 90    	movl   $0x90905862,(%rdi)
    201e:	c3                   	retq   

000000000000201f <setval_122>:
    201f:	f3 0f 1e fa          	endbr64 
    2023:	c7 07 21 99 58 94    	movl   $0x94589921,(%rdi)
    2029:	c3                   	retq   

000000000000202a <setval_442>:
    202a:	f3 0f 1e fa          	endbr64 
    202e:	c7 07 51 48 89 c7    	movl   $0xc7894851,(%rdi)
    2034:	c3                   	retq   

0000000000002035 <mid_farm>:
    2035:	f3 0f 1e fa          	endbr64 
    2039:	b8 01 00 00 00       	mov    $0x1,%eax
    203e:	c3                   	retq   

000000000000203f <add_xy>:
    203f:	f3 0f 1e fa          	endbr64 
    2043:	48 8d 04 37          	lea    (%rdi,%rsi,1),%rax
    2047:	c3                   	retq   

0000000000002048 <getval_332>:
    2048:	f3 0f 1e fa          	endbr64 
    204c:	b8 89 d6 90 c3       	mov    $0xc390d689,%eax
    2051:	c3                   	retq   

0000000000002052 <addval_437>:
    2052:	f3 0f 1e fa          	endbr64 
    2056:	8d 87 09 d6 38 c9    	lea    -0x36c729f7(%rdi),%eax
    205c:	c3                   	retq   

000000000000205d <getval_195>:
    205d:	f3 0f 1e fa          	endbr64 
    2061:	b8 c9 ca 84 c0       	mov    $0xc084cac9,%eax
    2066:	c3                   	retq   

0000000000002067 <addval_232>:
    2067:	f3 0f 1e fa          	endbr64 
    206b:	8d 87 48 89 e0 90    	lea    -0x6f1f76b8(%rdi),%eax
    2071:	c3                   	retq   

0000000000002072 <addval_128>:
    2072:	f3 0f 1e fa          	endbr64 
    2076:	8d 87 89 c1 18 c9    	lea    -0x36e73e77(%rdi),%eax
    207c:	c3                   	retq   

000000000000207d <addval_343>:
    207d:	f3 0f 1e fa          	endbr64 
    2081:	8d 87 49 89 e0 90    	lea    -0x6f1f76b7(%rdi),%eax
    2087:	c3                   	retq   

0000000000002088 <addval_199>:
    2088:	f3 0f 1e fa          	endbr64 
    208c:	8d 87 c9 c1 84 c9    	lea    -0x367b3e37(%rdi),%eax
    2092:	c3                   	retq   

0000000000002093 <addval_488>:
    2093:	f3 0f 1e fa          	endbr64 
    2097:	8d 87 89 ca a4 d2    	lea    -0x2d5b3577(%rdi),%eax
    209d:	c3                   	retq   

000000000000209e <addval_261>:
    209e:	f3 0f 1e fa          	endbr64 
    20a2:	8d 87 89 c1 a4 db    	lea    -0x245b3e77(%rdi),%eax
    20a8:	c3                   	retq   

00000000000020a9 <setval_234>:
    20a9:	f3 0f 1e fa          	endbr64 
    20ad:	c7 07 88 c1 c3 50    	movl   $0x50c3c188,(%rdi)
    20b3:	c3                   	retq   

00000000000020b4 <addval_351>:
    20b4:	f3 0f 1e fa          	endbr64 
    20b8:	8d 87 99 ca 84 c9    	lea    -0x367b3567(%rdi),%eax
    20be:	c3                   	retq   

00000000000020bf <getval_321>:
    20bf:	f3 0f 1e fa          	endbr64 
    20c3:	b8 89 c1 48 d2       	mov    $0xd248c189,%eax
    20c8:	c3                   	retq   

00000000000020c9 <getval_391>:
    20c9:	f3 0f 1e fa          	endbr64 
    20cd:	b8 48 89 e0 c1       	mov    $0xc1e08948,%eax
    20d2:	c3                   	retq   

00000000000020d3 <getval_276>:
    20d3:	f3 0f 1e fa          	endbr64 
    20d7:	b8 89 d6 c4 d2       	mov    $0xd2c4d689,%eax
    20dc:	c3                   	retq   

00000000000020dd <getval_283>:
    20dd:	f3 0f 1e fa          	endbr64 
    20e1:	b8 89 ca 84 c9       	mov    $0xc984ca89,%eax
    20e6:	c3                   	retq   

00000000000020e7 <setval_461>:
    20e7:	f3 0f 1e fa          	endbr64 
    20eb:	c7 07 48 89 e0 c7    	movl   $0xc7e08948,(%rdi)
    20f1:	c3                   	retq   

00000000000020f2 <setval_155>:
    20f2:	f3 0f 1e fa          	endbr64 
    20f6:	c7 07 d3 89 ca c3    	movl   $0xc3ca89d3,(%rdi)
    20fc:	c3                   	retq   

00000000000020fd <addval_149>:
    20fd:	f3 0f 1e fa          	endbr64 
    2101:	8d 87 2d 89 ca 94    	lea    -0x6b3576d3(%rdi),%eax
    2107:	c3                   	retq   

0000000000002108 <getval_364>:
    2108:	f3 0f 1e fa          	endbr64 
    210c:	b8 89 d6 60 c0       	mov    $0xc060d689,%eax
    2111:	c3                   	retq   

0000000000002112 <getval_316>:
    2112:	f3 0f 1e fa          	endbr64 
    2116:	b8 89 c1 08 db       	mov    $0xdb08c189,%eax
    211b:	c3                   	retq   

000000000000211c <addval_156>:
    211c:	f3 0f 1e fa          	endbr64 
    2120:	8d 87 48 89 e0 c3    	lea    -0x3c1f76b8(%rdi),%eax
    2126:	c3                   	retq   

0000000000002127 <setval_482>:
    2127:	f3 0f 1e fa          	endbr64 
    212b:	c7 07 17 89 c1 c2    	movl   $0xc2c18917,(%rdi)
    2131:	c3                   	retq   

0000000000002132 <addval_139>:
    2132:	f3 0f 1e fa          	endbr64 
    2136:	8d 87 a9 d6 08 db    	lea    -0x24f72957(%rdi),%eax
    213c:	c3                   	retq   

000000000000213d <setval_342>:
    213d:	f3 0f 1e fa          	endbr64 
    2141:	c7 07 48 89 e0 94    	movl   $0x94e08948,(%rdi)
    2147:	c3                   	retq   

0000000000002148 <setval_349>:
    2148:	f3 0f 1e fa          	endbr64 
    214c:	c7 07 89 d6 38 c0    	movl   $0xc038d689,(%rdi)
    2152:	c3                   	retq   

0000000000002153 <addval_223>:
    2153:	f3 0f 1e fa          	endbr64 
    2157:	8d 87 96 89 ca c1    	lea    -0x3e35766a(%rdi),%eax
    215d:	c3                   	retq   

000000000000215e <setval_144>:
    215e:	f3 0f 1e fa          	endbr64 
    2162:	c7 07 48 a9 e0 c3    	movl   $0xc3e0a948,(%rdi)
    2168:	c3                   	retq   

0000000000002169 <addval_222>:
    2169:	f3 0f 1e fa          	endbr64 
    216d:	8d 87 89 c1 20 db    	lea    -0x24df3e77(%rdi),%eax
    2173:	c3                   	retq   

0000000000002174 <getval_466>:
    2174:	f3 0f 1e fa          	endbr64 
    2178:	b8 89 ca 48 c9       	mov    $0xc948ca89,%eax
    217d:	c3                   	retq   

000000000000217e <setval_496>:
    217e:	f3 0f 1e fa          	endbr64 
    2182:	c7 07 48 8d e0 c3    	movl   $0xc3e08d48,(%rdi)
    2188:	c3                   	retq   

0000000000002189 <setval_107>:
    2189:	f3 0f 1e fa          	endbr64 
    218d:	c7 07 99 d6 84 d2    	movl   $0xd284d699,(%rdi)
    2193:	c3                   	retq   

0000000000002194 <setval_251>:
    2194:	f3 0f 1e fa          	endbr64 
    2198:	c7 07 a9 d6 20 db    	movl   $0xdb20d6a9,(%rdi)
    219e:	c3                   	retq   

000000000000219f <end_farm>:
    219f:	f3 0f 1e fa          	endbr64 
    21a3:	b8 01 00 00 00       	mov    $0x1,%eax
    21a8:	c3                   	retq   

00000000000021a9 <save_char>:
    21a9:	8b 05 55 5e 00 00    	mov    0x5e55(%rip),%eax        # 8004 <gets_cnt>
    21af:	3d ff 03 00 00       	cmp    $0x3ff,%eax
    21b4:	7f 4a                	jg     2200 <save_char+0x57>
    21b6:	89 f9                	mov    %edi,%ecx
    21b8:	c0 e9 04             	shr    $0x4,%cl
    21bb:	8d 14 40             	lea    (%rax,%rax,2),%edx
    21be:	4c 8d 05 2b 25 00 00 	lea    0x252b(%rip),%r8        # 46f0 <trans_char>
    21c5:	83 e1 0f             	and    $0xf,%ecx
    21c8:	45 0f b6 0c 08       	movzbl (%r8,%rcx,1),%r9d
    21cd:	48 8d 0d 2c 52 00 00 	lea    0x522c(%rip),%rcx        # 7400 <gets_buf>
    21d4:	48 63 f2             	movslq %edx,%rsi
    21d7:	44 88 0c 31          	mov    %r9b,(%rcx,%rsi,1)
    21db:	8d 72 01             	lea    0x1(%rdx),%esi
    21de:	83 e7 0f             	and    $0xf,%edi
    21e1:	41 0f b6 3c 38       	movzbl (%r8,%rdi,1),%edi
    21e6:	48 63 f6             	movslq %esi,%rsi
    21e9:	40 88 3c 31          	mov    %dil,(%rcx,%rsi,1)
    21ed:	83 c2 02             	add    $0x2,%edx
    21f0:	48 63 d2             	movslq %edx,%rdx
    21f3:	c6 04 11 20          	movb   $0x20,(%rcx,%rdx,1)
    21f7:	83 c0 01             	add    $0x1,%eax
    21fa:	89 05 04 5e 00 00    	mov    %eax,0x5e04(%rip)        # 8004 <gets_cnt>
    2200:	c3                   	retq   

0000000000002201 <save_term>:
    2201:	8b 05 fd 5d 00 00    	mov    0x5dfd(%rip),%eax        # 8004 <gets_cnt>
    2207:	8d 04 40             	lea    (%rax,%rax,2),%eax
    220a:	48 98                	cltq   
    220c:	48 8d 15 ed 51 00 00 	lea    0x51ed(%rip),%rdx        # 7400 <gets_buf>
    2213:	c6 04 02 00          	movb   $0x0,(%rdx,%rax,1)
    2217:	c3                   	retq   

0000000000002218 <check_fail>:
    2218:	f3 0f 1e fa          	endbr64 
    221c:	50                   	push   %rax
    221d:	58                   	pop    %rax
    221e:	48 83 ec 08          	sub    $0x8,%rsp
    2222:	0f be 15 df 5d 00 00 	movsbl 0x5ddf(%rip),%edx        # 8008 <target_prefix>
    2229:	4c 8d 05 d0 51 00 00 	lea    0x51d0(%rip),%r8        # 7400 <gets_buf>
    2230:	8b 0d a2 51 00 00    	mov    0x51a2(%rip),%ecx        # 73d8 <check_level>
    2236:	48 8d 35 ae 21 00 00 	lea    0x21ae(%rip),%rsi        # 43eb <_IO_stdin_used+0x3eb>
    223d:	bf 01 00 00 00       	mov    $0x1,%edi
    2242:	b8 00 00 00 00       	mov    $0x0,%eax
    2247:	e8 64 f1 ff ff       	callq  13b0 <__printf_chk@plt>
    224c:	bf 01 00 00 00       	mov    $0x1,%edi
    2251:	e8 aa f1 ff ff       	callq  1400 <exit@plt>

0000000000002256 <Gets>:
    2256:	f3 0f 1e fa          	endbr64 
    225a:	41 54                	push   %r12
    225c:	55                   	push   %rbp
    225d:	53                   	push   %rbx
    225e:	49 89 fc             	mov    %rdi,%r12
    2261:	c7 05 99 5d 00 00 00 	movl   $0x0,0x5d99(%rip)        # 8004 <gets_cnt>
    2268:	00 00 00 
    226b:	48 89 fb             	mov    %rdi,%rbx
    226e:	48 8b 3d 5b 51 00 00 	mov    0x515b(%rip),%rdi        # 73d0 <infile>
    2275:	e8 b6 f1 ff ff       	callq  1430 <getc@plt>
    227a:	83 f8 ff             	cmp    $0xffffffff,%eax
    227d:	74 18                	je     2297 <Gets+0x41>
    227f:	83 f8 0a             	cmp    $0xa,%eax
    2282:	74 13                	je     2297 <Gets+0x41>
    2284:	48 8d 6b 01          	lea    0x1(%rbx),%rbp
    2288:	88 03                	mov    %al,(%rbx)
    228a:	0f b6 f8             	movzbl %al,%edi
    228d:	e8 17 ff ff ff       	callq  21a9 <save_char>
    2292:	48 89 eb             	mov    %rbp,%rbx
    2295:	eb d7                	jmp    226e <Gets+0x18>
    2297:	c6 03 00             	movb   $0x0,(%rbx)
    229a:	b8 00 00 00 00       	mov    $0x0,%eax
    229f:	e8 5d ff ff ff       	callq  2201 <save_term>
    22a4:	4c 89 e0             	mov    %r12,%rax
    22a7:	5b                   	pop    %rbx
    22a8:	5d                   	pop    %rbp
    22a9:	41 5c                	pop    %r12
    22ab:	c3                   	retq   

00000000000022ac <notify_server>:
    22ac:	f3 0f 1e fa          	endbr64 
    22b0:	55                   	push   %rbp
    22b1:	53                   	push   %rbx
    22b2:	4c 8d 9c 24 00 c0 ff 	lea    -0x4000(%rsp),%r11
    22b9:	ff 
    22ba:	48 81 ec 00 10 00 00 	sub    $0x1000,%rsp
    22c1:	48 83 0c 24 00       	orq    $0x0,(%rsp)
    22c6:	4c 39 dc             	cmp    %r11,%rsp
    22c9:	75 ef                	jne    22ba <notify_server+0xe>
    22cb:	48 83 ec 18          	sub    $0x18,%rsp
    22cf:	64 48 8b 04 25 28 00 	mov    %fs:0x28,%rax
    22d6:	00 00 
    22d8:	48 89 84 24 08 40 00 	mov    %rax,0x4008(%rsp)
    22df:	00 
    22e0:	31 c0                	xor    %eax,%eax
    22e2:	83 3d ff 50 00 00 00 	cmpl   $0x0,0x50ff(%rip)        # 73e8 <is_checker>
    22e9:	0f 85 26 01 00 00    	jne    2415 <notify_server+0x169>
    22ef:	89 fb                	mov    %edi,%ebx
    22f1:	81 3d 09 5d 00 00 9c 	cmpl   $0x1f9c,0x5d09(%rip)        # 8004 <gets_cnt>
    22f8:	1f 00 00 
    22fb:	7f 18                	jg     2315 <notify_server+0x69>
    22fd:	0f be 05 04 5d 00 00 	movsbl 0x5d04(%rip),%eax        # 8008 <target_prefix>
    2304:	83 3d 5d 50 00 00 00 	cmpl   $0x0,0x505d(%rip)        # 7368 <notify>
    230b:	74 23                	je     2330 <notify_server+0x84>
    230d:	8b 15 cd 50 00 00    	mov    0x50cd(%rip),%edx        # 73e0 <authkey>
    2313:	eb 20                	jmp    2335 <notify_server+0x89>
    2315:	48 8d 35 04 22 00 00 	lea    0x2204(%rip),%rsi        # 4520 <_IO_stdin_used+0x520>
    231c:	bf 01 00 00 00       	mov    $0x1,%edi
    2321:	e8 8a f0 ff ff       	callq  13b0 <__printf_chk@plt>
    2326:	bf 01 00 00 00       	mov    $0x1,%edi
    232b:	e8 d0 f0 ff ff       	callq  1400 <exit@plt>
    2330:	ba ff ff ff ff       	mov    $0xffffffff,%edx
    2335:	85 db                	test   %ebx,%ebx
    2337:	0f 84 98 00 00 00    	je     23d5 <notify_server+0x129>
    233d:	48 8d 2d c2 20 00 00 	lea    0x20c2(%rip),%rbp        # 4406 <_IO_stdin_used+0x406>
    2344:	48 89 e7             	mov    %rsp,%rdi
    2347:	48 8d 0d b2 50 00 00 	lea    0x50b2(%rip),%rcx        # 7400 <gets_buf>
    234e:	51                   	push   %rcx
    234f:	56                   	push   %rsi
    2350:	50                   	push   %rax
    2351:	52                   	push   %rdx
    2352:	49 89 e9             	mov    %rbp,%r9
    2355:	44 8b 05 b4 4c 00 00 	mov    0x4cb4(%rip),%r8d        # 7010 <target_id>
    235c:	48 8d 0d a8 20 00 00 	lea    0x20a8(%rip),%rcx        # 440b <_IO_stdin_used+0x40b>
    2363:	ba 00 20 00 00       	mov    $0x2000,%edx
    2368:	be 01 00 00 00       	mov    $0x1,%esi
    236d:	b8 00 00 00 00       	mov    $0x0,%eax
    2372:	e8 c9 f0 ff ff       	callq  1440 <__sprintf_chk@plt>
    2377:	48 83 c4 20          	add    $0x20,%rsp
    237b:	83 3d e6 4f 00 00 00 	cmpl   $0x0,0x4fe6(%rip)        # 7368 <notify>
    2382:	0f 84 ae 00 00 00    	je     2436 <notify_server+0x18a>
    2388:	85 db                	test   %ebx,%ebx
    238a:	74 7d                	je     2409 <notify_server+0x15d>
    238c:	48 89 e1             	mov    %rsp,%rcx
    238f:	4c 8d 8c 24 00 20 00 	lea    0x2000(%rsp),%r9
    2396:	00 
    2397:	41 b8 00 00 00 00    	mov    $0x0,%r8d
    239d:	48 8b 15 84 4c 00 00 	mov    0x4c84(%rip),%rdx        # 7028 <lab>
    23a4:	48 8b 35 85 4c 00 00 	mov    0x4c85(%rip),%rsi        # 7030 <course>
    23ab:	48 8b 3d 6e 4c 00 00 	mov    0x4c6e(%rip),%rdi        # 7020 <user_id>
    23b2:	e8 d9 11 00 00       	callq  3590 <driver_post>
    23b7:	85 c0                	test   %eax,%eax
    23b9:	78 26                	js     23e1 <notify_server+0x135>
    23bb:	48 8d 3d 8e 21 00 00 	lea    0x218e(%rip),%rdi        # 4550 <_IO_stdin_used+0x550>
    23c2:	e8 d9 ee ff ff       	callq  12a0 <puts@plt>
    23c7:	48 8d 3d 65 20 00 00 	lea    0x2065(%rip),%rdi        # 4433 <_IO_stdin_used+0x433>
    23ce:	e8 cd ee ff ff       	callq  12a0 <puts@plt>
    23d3:	eb 40                	jmp    2415 <notify_server+0x169>
    23d5:	48 8d 2d 25 20 00 00 	lea    0x2025(%rip),%rbp        # 4401 <_IO_stdin_used+0x401>
    23dc:	e9 63 ff ff ff       	jmpq   2344 <notify_server+0x98>
    23e1:	48 8d 94 24 00 20 00 	lea    0x2000(%rsp),%rdx
    23e8:	00 
    23e9:	48 8d 35 37 20 00 00 	lea    0x2037(%rip),%rsi        # 4427 <_IO_stdin_used+0x427>
    23f0:	bf 01 00 00 00       	mov    $0x1,%edi
    23f5:	b8 00 00 00 00       	mov    $0x0,%eax
    23fa:	e8 b1 ef ff ff       	callq  13b0 <__printf_chk@plt>
    23ff:	bf 01 00 00 00       	mov    $0x1,%edi
    2404:	e8 f7 ef ff ff       	callq  1400 <exit@plt>
    2409:	48 8d 3d 2d 20 00 00 	lea    0x202d(%rip),%rdi        # 443d <_IO_stdin_used+0x43d>
    2410:	e8 8b ee ff ff       	callq  12a0 <puts@plt>
    2415:	48 8b 84 24 08 40 00 	mov    0x4008(%rsp),%rax
    241c:	00 
    241d:	64 48 33 04 25 28 00 	xor    %fs:0x28,%rax
    2424:	00 00 
    2426:	0f 85 98 00 00 00    	jne    24c4 <notify_server+0x218>
    242c:	48 81 c4 18 40 00 00 	add    $0x4018,%rsp
    2433:	5b                   	pop    %rbx
    2434:	5d                   	pop    %rbp
    2435:	c3                   	retq   
    2436:	48 89 ea             	mov    %rbp,%rdx
    2439:	48 8d 35 48 21 00 00 	lea    0x2148(%rip),%rsi        # 4588 <_IO_stdin_used+0x588>
    2440:	bf 01 00 00 00       	mov    $0x1,%edi
    2445:	b8 00 00 00 00       	mov    $0x0,%eax
    244a:	e8 61 ef ff ff       	callq  13b0 <__printf_chk@plt>
    244f:	48 8b 15 ca 4b 00 00 	mov    0x4bca(%rip),%rdx        # 7020 <user_id>
    2456:	48 8d 35 e7 1f 00 00 	lea    0x1fe7(%rip),%rsi        # 4444 <_IO_stdin_used+0x444>
    245d:	bf 01 00 00 00       	mov    $0x1,%edi
    2462:	b8 00 00 00 00       	mov    $0x0,%eax
    2467:	e8 44 ef ff ff       	callq  13b0 <__printf_chk@plt>
    246c:	48 8b 15 bd 4b 00 00 	mov    0x4bbd(%rip),%rdx        # 7030 <course>
    2473:	48 8d 35 d7 1f 00 00 	lea    0x1fd7(%rip),%rsi        # 4451 <_IO_stdin_used+0x451>
    247a:	bf 01 00 00 00       	mov    $0x1,%edi
    247f:	b8 00 00 00 00       	mov    $0x0,%eax
    2484:	e8 27 ef ff ff       	callq  13b0 <__printf_chk@plt>
    2489:	48 8b 15 98 4b 00 00 	mov    0x4b98(%rip),%rdx        # 7028 <lab>
    2490:	48 8d 35 c6 1f 00 00 	lea    0x1fc6(%rip),%rsi        # 445d <_IO_stdin_used+0x45d>
    2497:	bf 01 00 00 00       	mov    $0x1,%edi
    249c:	b8 00 00 00 00       	mov    $0x0,%eax
    24a1:	e8 0a ef ff ff       	callq  13b0 <__printf_chk@plt>
    24a6:	48 89 e2             	mov    %rsp,%rdx
    24a9:	48 8d 35 b6 1f 00 00 	lea    0x1fb6(%rip),%rsi        # 4466 <_IO_stdin_used+0x466>
    24b0:	bf 01 00 00 00       	mov    $0x1,%edi
    24b5:	b8 00 00 00 00       	mov    $0x0,%eax
    24ba:	e8 f1 ee ff ff       	callq  13b0 <__printf_chk@plt>
    24bf:	e9 51 ff ff ff       	jmpq   2415 <notify_server+0x169>
    24c4:	e8 f7 ed ff ff       	callq  12c0 <__stack_chk_fail@plt>

00000000000024c9 <validate>:
    24c9:	f3 0f 1e fa          	endbr64 
    24cd:	53                   	push   %rbx
    24ce:	89 fb                	mov    %edi,%ebx
    24d0:	83 3d 11 4f 00 00 00 	cmpl   $0x0,0x4f11(%rip)        # 73e8 <is_checker>
    24d7:	74 72                	je     254b <validate+0x82>
    24d9:	39 3d fd 4e 00 00    	cmp    %edi,0x4efd(%rip)        # 73dc <vlevel>
    24df:	75 32                	jne    2513 <validate+0x4a>
    24e1:	8b 15 f1 4e 00 00    	mov    0x4ef1(%rip),%edx        # 73d8 <check_level>
    24e7:	39 fa                	cmp    %edi,%edx
    24e9:	75 3e                	jne    2529 <validate+0x60>
    24eb:	0f be 15 16 5b 00 00 	movsbl 0x5b16(%rip),%edx        # 8008 <target_prefix>
    24f2:	4c 8d 05 07 4f 00 00 	lea    0x4f07(%rip),%r8        # 7400 <gets_buf>
    24f9:	89 f9                	mov    %edi,%ecx
    24fb:	48 8d 35 8e 1f 00 00 	lea    0x1f8e(%rip),%rsi        # 4490 <_IO_stdin_used+0x490>
    2502:	bf 01 00 00 00       	mov    $0x1,%edi
    2507:	b8 00 00 00 00       	mov    $0x0,%eax
    250c:	e8 9f ee ff ff       	callq  13b0 <__printf_chk@plt>
    2511:	5b                   	pop    %rbx
    2512:	c3                   	retq   
    2513:	48 8d 3d 58 1f 00 00 	lea    0x1f58(%rip),%rdi        # 4472 <_IO_stdin_used+0x472>
    251a:	e8 81 ed ff ff       	callq  12a0 <puts@plt>
    251f:	b8 00 00 00 00       	mov    $0x0,%eax
    2524:	e8 ef fc ff ff       	callq  2218 <check_fail>
    2529:	89 f9                	mov    %edi,%ecx
    252b:	48 8d 35 7e 20 00 00 	lea    0x207e(%rip),%rsi        # 45b0 <_IO_stdin_used+0x5b0>
    2532:	bf 01 00 00 00       	mov    $0x1,%edi
    2537:	b8 00 00 00 00       	mov    $0x0,%eax
    253c:	e8 6f ee ff ff       	callq  13b0 <__printf_chk@plt>
    2541:	b8 00 00 00 00       	mov    $0x0,%eax
    2546:	e8 cd fc ff ff       	callq  2218 <check_fail>
    254b:	39 3d 8b 4e 00 00    	cmp    %edi,0x4e8b(%rip)        # 73dc <vlevel>
    2551:	74 1a                	je     256d <validate+0xa4>
    2553:	48 8d 3d 18 1f 00 00 	lea    0x1f18(%rip),%rdi        # 4472 <_IO_stdin_used+0x472>
    255a:	e8 41 ed ff ff       	callq  12a0 <puts@plt>
    255f:	89 de                	mov    %ebx,%esi
    2561:	bf 00 00 00 00       	mov    $0x0,%edi
    2566:	e8 41 fd ff ff       	callq  22ac <notify_server>
    256b:	eb a4                	jmp    2511 <validate+0x48>
    256d:	0f be 0d 94 5a 00 00 	movsbl 0x5a94(%rip),%ecx        # 8008 <target_prefix>
    2574:	89 fa                	mov    %edi,%edx
    2576:	48 8d 35 5b 20 00 00 	lea    0x205b(%rip),%rsi        # 45d8 <_IO_stdin_used+0x5d8>
    257d:	bf 01 00 00 00       	mov    $0x1,%edi
    2582:	b8 00 00 00 00       	mov    $0x0,%eax
    2587:	e8 24 ee ff ff       	callq  13b0 <__printf_chk@plt>
    258c:	89 de                	mov    %ebx,%esi
    258e:	bf 01 00 00 00       	mov    $0x1,%edi
    2593:	e8 14 fd ff ff       	callq  22ac <notify_server>
    2598:	e9 74 ff ff ff       	jmpq   2511 <validate+0x48>

000000000000259d <fail>:
    259d:	f3 0f 1e fa          	endbr64 
    25a1:	48 83 ec 08          	sub    $0x8,%rsp
    25a5:	83 3d 3c 4e 00 00 00 	cmpl   $0x0,0x4e3c(%rip)        # 73e8 <is_checker>
    25ac:	75 11                	jne    25bf <fail+0x22>
    25ae:	89 fe                	mov    %edi,%esi
    25b0:	bf 00 00 00 00       	mov    $0x0,%edi
    25b5:	e8 f2 fc ff ff       	callq  22ac <notify_server>
    25ba:	48 83 c4 08          	add    $0x8,%rsp
    25be:	c3                   	retq   
    25bf:	b8 00 00 00 00       	mov    $0x0,%eax
    25c4:	e8 4f fc ff ff       	callq  2218 <check_fail>

00000000000025c9 <bushandler>:
    25c9:	f3 0f 1e fa          	endbr64 
    25cd:	50                   	push   %rax
    25ce:	58                   	pop    %rax
    25cf:	48 83 ec 08          	sub    $0x8,%rsp
    25d3:	83 3d 0e 4e 00 00 00 	cmpl   $0x0,0x4e0e(%rip)        # 73e8 <is_checker>
    25da:	74 16                	je     25f2 <bushandler+0x29>
    25dc:	48 8d 3d c2 1e 00 00 	lea    0x1ec2(%rip),%rdi        # 44a5 <_IO_stdin_used+0x4a5>
    25e3:	e8 b8 ec ff ff       	callq  12a0 <puts@plt>
    25e8:	b8 00 00 00 00       	mov    $0x0,%eax
    25ed:	e8 26 fc ff ff       	callq  2218 <check_fail>
    25f2:	48 8d 3d 17 20 00 00 	lea    0x2017(%rip),%rdi        # 4610 <_IO_stdin_used+0x610>
    25f9:	e8 a2 ec ff ff       	callq  12a0 <puts@plt>
    25fe:	48 8d 3d aa 1e 00 00 	lea    0x1eaa(%rip),%rdi        # 44af <_IO_stdin_used+0x4af>
    2605:	e8 96 ec ff ff       	callq  12a0 <puts@plt>
    260a:	be 00 00 00 00       	mov    $0x0,%esi
    260f:	bf 00 00 00 00       	mov    $0x0,%edi
    2614:	e8 93 fc ff ff       	callq  22ac <notify_server>
    2619:	bf 01 00 00 00       	mov    $0x1,%edi
    261e:	e8 dd ed ff ff       	callq  1400 <exit@plt>

0000000000002623 <seghandler>:
    2623:	f3 0f 1e fa          	endbr64 
    2627:	50                   	push   %rax
    2628:	58                   	pop    %rax
    2629:	48 83 ec 08          	sub    $0x8,%rsp
    262d:	83 3d b4 4d 00 00 00 	cmpl   $0x0,0x4db4(%rip)        # 73e8 <is_checker>
    2634:	74 16                	je     264c <seghandler+0x29>
    2636:	48 8d 3d 88 1e 00 00 	lea    0x1e88(%rip),%rdi        # 44c5 <_IO_stdin_used+0x4c5>
    263d:	e8 5e ec ff ff       	callq  12a0 <puts@plt>
    2642:	b8 00 00 00 00       	mov    $0x0,%eax
    2647:	e8 cc fb ff ff       	callq  2218 <check_fail>
    264c:	48 8d 3d dd 1f 00 00 	lea    0x1fdd(%rip),%rdi        # 4630 <_IO_stdin_used+0x630>
    2653:	e8 48 ec ff ff       	callq  12a0 <puts@plt>
    2658:	48 8d 3d 50 1e 00 00 	lea    0x1e50(%rip),%rdi        # 44af <_IO_stdin_used+0x4af>
    265f:	e8 3c ec ff ff       	callq  12a0 <puts@plt>
    2664:	be 00 00 00 00       	mov    $0x0,%esi
    2669:	bf 00 00 00 00       	mov    $0x0,%edi
    266e:	e8 39 fc ff ff       	callq  22ac <notify_server>
    2673:	bf 01 00 00 00       	mov    $0x1,%edi
    2678:	e8 83 ed ff ff       	callq  1400 <exit@plt>

000000000000267d <illegalhandler>:
    267d:	f3 0f 1e fa          	endbr64 
    2681:	50                   	push   %rax
    2682:	58                   	pop    %rax
    2683:	48 83 ec 08          	sub    $0x8,%rsp
    2687:	83 3d 5a 4d 00 00 00 	cmpl   $0x0,0x4d5a(%rip)        # 73e8 <is_checker>
    268e:	74 16                	je     26a6 <illegalhandler+0x29>
    2690:	48 8d 3d 41 1e 00 00 	lea    0x1e41(%rip),%rdi        # 44d8 <_IO_stdin_used+0x4d8>
    2697:	e8 04 ec ff ff       	callq  12a0 <puts@plt>
    269c:	b8 00 00 00 00       	mov    $0x0,%eax
    26a1:	e8 72 fb ff ff       	callq  2218 <check_fail>
    26a6:	48 8d 3d ab 1f 00 00 	lea    0x1fab(%rip),%rdi        # 4658 <_IO_stdin_used+0x658>
    26ad:	e8 ee eb ff ff       	callq  12a0 <puts@plt>
    26b2:	48 8d 3d f6 1d 00 00 	lea    0x1df6(%rip),%rdi        # 44af <_IO_stdin_used+0x4af>
    26b9:	e8 e2 eb ff ff       	callq  12a0 <puts@plt>
    26be:	be 00 00 00 00       	mov    $0x0,%esi
    26c3:	bf 00 00 00 00       	mov    $0x0,%edi
    26c8:	e8 df fb ff ff       	callq  22ac <notify_server>
    26cd:	bf 01 00 00 00       	mov    $0x1,%edi
    26d2:	e8 29 ed ff ff       	callq  1400 <exit@plt>

00000000000026d7 <sigalrmhandler>:
    26d7:	f3 0f 1e fa          	endbr64 
    26db:	50                   	push   %rax
    26dc:	58                   	pop    %rax
    26dd:	48 83 ec 08          	sub    $0x8,%rsp
    26e1:	83 3d 00 4d 00 00 00 	cmpl   $0x0,0x4d00(%rip)        # 73e8 <is_checker>
    26e8:	74 16                	je     2700 <sigalrmhandler+0x29>
    26ea:	48 8d 3d fb 1d 00 00 	lea    0x1dfb(%rip),%rdi        # 44ec <_IO_stdin_used+0x4ec>
    26f1:	e8 aa eb ff ff       	callq  12a0 <puts@plt>
    26f6:	b8 00 00 00 00       	mov    $0x0,%eax
    26fb:	e8 18 fb ff ff       	callq  2218 <check_fail>
    2700:	ba 05 00 00 00       	mov    $0x5,%edx
    2705:	48 8d 35 7c 1f 00 00 	lea    0x1f7c(%rip),%rsi        # 4688 <_IO_stdin_used+0x688>
    270c:	bf 01 00 00 00       	mov    $0x1,%edi
    2711:	b8 00 00 00 00       	mov    $0x0,%eax
    2716:	e8 95 ec ff ff       	callq  13b0 <__printf_chk@plt>
    271b:	be 00 00 00 00       	mov    $0x0,%esi
    2720:	bf 00 00 00 00       	mov    $0x0,%edi
    2725:	e8 82 fb ff ff       	callq  22ac <notify_server>
    272a:	bf 01 00 00 00       	mov    $0x1,%edi
    272f:	e8 cc ec ff ff       	callq  1400 <exit@plt>

0000000000002734 <launch>:
    2734:	f3 0f 1e fa          	endbr64 
    2738:	55                   	push   %rbp
    2739:	48 89 e5             	mov    %rsp,%rbp
    273c:	48 83 ec 10          	sub    $0x10,%rsp
    2740:	48 89 fa             	mov    %rdi,%rdx
    2743:	64 48 8b 04 25 28 00 	mov    %fs:0x28,%rax
    274a:	00 00 
    274c:	48 89 45 f8          	mov    %rax,-0x8(%rbp)
    2750:	31 c0                	xor    %eax,%eax
    2752:	48 8d 47 17          	lea    0x17(%rdi),%rax
    2756:	48 89 c1             	mov    %rax,%rcx
    2759:	48 83 e1 f0          	and    $0xfffffffffffffff0,%rcx
    275d:	48 25 00 f0 ff ff    	and    $0xfffffffffffff000,%rax
    2763:	48 89 e6             	mov    %rsp,%rsi
    2766:	48 29 c6             	sub    %rax,%rsi
    2769:	48 89 f0             	mov    %rsi,%rax
    276c:	48 39 c4             	cmp    %rax,%rsp
    276f:	74 12                	je     2783 <launch+0x4f>
    2771:	48 81 ec 00 10 00 00 	sub    $0x1000,%rsp
    2778:	48 83 8c 24 f8 0f 00 	orq    $0x0,0xff8(%rsp)
    277f:	00 00 
    2781:	eb e9                	jmp    276c <launch+0x38>
    2783:	48 89 c8             	mov    %rcx,%rax
    2786:	25 ff 0f 00 00       	and    $0xfff,%eax
    278b:	48 29 c4             	sub    %rax,%rsp
    278e:	48 85 c0             	test   %rax,%rax
    2791:	74 06                	je     2799 <launch+0x65>
    2793:	48 83 4c 04 f8 00    	orq    $0x0,-0x8(%rsp,%rax,1)
    2799:	48 8d 7c 24 0f       	lea    0xf(%rsp),%rdi
    279e:	48 83 e7 f0          	and    $0xfffffffffffffff0,%rdi
    27a2:	be f4 00 00 00       	mov    $0xf4,%esi
    27a7:	e8 34 eb ff ff       	callq  12e0 <memset@plt>
    27ac:	48 8b 05 cd 4b 00 00 	mov    0x4bcd(%rip),%rax        # 7380 <stdin@@GLIBC_2.2.5>
    27b3:	48 39 05 16 4c 00 00 	cmp    %rax,0x4c16(%rip)        # 73d0 <infile>
    27ba:	74 3a                	je     27f6 <launch+0xc2>
    27bc:	c7 05 16 4c 00 00 00 	movl   $0x0,0x4c16(%rip)        # 73dc <vlevel>
    27c3:	00 00 00 
    27c6:	b8 00 00 00 00       	mov    $0x0,%eax
    27cb:	e8 d5 f7 ff ff       	callq  1fa5 <test>
    27d0:	83 3d 11 4c 00 00 00 	cmpl   $0x0,0x4c11(%rip)        # 73e8 <is_checker>
    27d7:	75 35                	jne    280e <launch+0xda>
    27d9:	48 8d 3d 2c 1d 00 00 	lea    0x1d2c(%rip),%rdi        # 450c <_IO_stdin_used+0x50c>
    27e0:	e8 bb ea ff ff       	callq  12a0 <puts@plt>
    27e5:	48 8b 45 f8          	mov    -0x8(%rbp),%rax
    27e9:	64 48 33 04 25 28 00 	xor    %fs:0x28,%rax
    27f0:	00 00 
    27f2:	75 30                	jne    2824 <launch+0xf0>
    27f4:	c9                   	leaveq 
    27f5:	c3                   	retq   
    27f6:	48 8d 35 f7 1c 00 00 	lea    0x1cf7(%rip),%rsi        # 44f4 <_IO_stdin_used+0x4f4>
    27fd:	bf 01 00 00 00       	mov    $0x1,%edi
    2802:	b8 00 00 00 00       	mov    $0x0,%eax
    2807:	e8 a4 eb ff ff       	callq  13b0 <__printf_chk@plt>
    280c:	eb ae                	jmp    27bc <launch+0x88>
    280e:	48 8d 3d ec 1c 00 00 	lea    0x1cec(%rip),%rdi        # 4501 <_IO_stdin_used+0x501>
    2815:	e8 86 ea ff ff       	callq  12a0 <puts@plt>
    281a:	b8 00 00 00 00       	mov    $0x0,%eax
    281f:	e8 f4 f9 ff ff       	callq  2218 <check_fail>
    2824:	e8 97 ea ff ff       	callq  12c0 <__stack_chk_fail@plt>

0000000000002829 <stable_launch>:
    2829:	f3 0f 1e fa          	endbr64 
    282d:	53                   	push   %rbx
    282e:	48 89 3d 93 4b 00 00 	mov    %rdi,0x4b93(%rip)        # 73c8 <global_offset>
    2835:	41 b9 00 00 00 00    	mov    $0x0,%r9d
    283b:	41 b8 00 00 00 00    	mov    $0x0,%r8d
    2841:	b9 32 01 00 00       	mov    $0x132,%ecx
    2846:	ba 07 00 00 00       	mov    $0x7,%edx
    284b:	be 00 00 10 00       	mov    $0x100000,%esi
    2850:	bf 00 60 58 55       	mov    $0x55586000,%edi
    2855:	e8 76 ea ff ff       	callq  12d0 <mmap@plt>
    285a:	48 89 c3             	mov    %rax,%rbx
    285d:	48 3d 00 60 58 55    	cmp    $0x55586000,%rax
    2863:	75 43                	jne    28a8 <stable_launch+0x7f>
    2865:	48 8d 90 f8 ff 0f 00 	lea    0xffff8(%rax),%rdx
    286c:	48 89 15 9d 57 00 00 	mov    %rdx,0x579d(%rip)        # 8010 <stack_top>
    2873:	48 89 e0             	mov    %rsp,%rax
    2876:	48 89 d4             	mov    %rdx,%rsp
    2879:	48 89 c2             	mov    %rax,%rdx
    287c:	48 89 15 3d 4b 00 00 	mov    %rdx,0x4b3d(%rip)        # 73c0 <global_save_stack>
    2883:	48 8b 3d 3e 4b 00 00 	mov    0x4b3e(%rip),%rdi        # 73c8 <global_offset>
    288a:	e8 a5 fe ff ff       	callq  2734 <launch>
    288f:	48 8b 05 2a 4b 00 00 	mov    0x4b2a(%rip),%rax        # 73c0 <global_save_stack>
    2896:	48 89 c4             	mov    %rax,%rsp
    2899:	be 00 00 10 00       	mov    $0x100000,%esi
    289e:	48 89 df             	mov    %rbx,%rdi
    28a1:	e8 fa ea ff ff       	callq  13a0 <munmap@plt>
    28a6:	5b                   	pop    %rbx
    28a7:	c3                   	retq   
    28a8:	be 00 00 10 00       	mov    $0x100000,%esi
    28ad:	48 89 c7             	mov    %rax,%rdi
    28b0:	e8 eb ea ff ff       	callq  13a0 <munmap@plt>
    28b5:	b9 00 60 58 55       	mov    $0x55586000,%ecx
    28ba:	48 8d 15 ff 1d 00 00 	lea    0x1dff(%rip),%rdx        # 46c0 <_IO_stdin_used+0x6c0>
    28c1:	be 01 00 00 00       	mov    $0x1,%esi
    28c6:	48 8b 3d d3 4a 00 00 	mov    0x4ad3(%rip),%rdi        # 73a0 <stderr@@GLIBC_2.2.5>
    28cd:	b8 00 00 00 00       	mov    $0x0,%eax
    28d2:	e8 49 eb ff ff       	callq  1420 <__fprintf_chk@plt>
    28d7:	bf 01 00 00 00       	mov    $0x1,%edi
    28dc:	e8 1f eb ff ff       	callq  1400 <exit@plt>

00000000000028e1 <rio_readinitb>:
    28e1:	89 37                	mov    %esi,(%rdi)
    28e3:	c7 47 04 00 00 00 00 	movl   $0x0,0x4(%rdi)
    28ea:	48 8d 47 10          	lea    0x10(%rdi),%rax
    28ee:	48 89 47 08          	mov    %rax,0x8(%rdi)
    28f2:	c3                   	retq   

00000000000028f3 <sigalrm_handler>:
    28f3:	f3 0f 1e fa          	endbr64 
    28f7:	50                   	push   %rax
    28f8:	58                   	pop    %rax
    28f9:	48 83 ec 08          	sub    $0x8,%rsp
    28fd:	b9 00 00 00 00       	mov    $0x0,%ecx
    2902:	48 8d 15 f7 1d 00 00 	lea    0x1df7(%rip),%rdx        # 4700 <trans_char+0x10>
    2909:	be 01 00 00 00       	mov    $0x1,%esi
    290e:	48 8b 3d 8b 4a 00 00 	mov    0x4a8b(%rip),%rdi        # 73a0 <stderr@@GLIBC_2.2.5>
    2915:	b8 00 00 00 00       	mov    $0x0,%eax
    291a:	e8 01 eb ff ff       	callq  1420 <__fprintf_chk@plt>
    291f:	bf 01 00 00 00       	mov    $0x1,%edi
    2924:	e8 d7 ea ff ff       	callq  1400 <exit@plt>

0000000000002929 <rio_writen>:
    2929:	41 55                	push   %r13
    292b:	41 54                	push   %r12
    292d:	55                   	push   %rbp
    292e:	53                   	push   %rbx
    292f:	48 83 ec 08          	sub    $0x8,%rsp
    2933:	41 89 fc             	mov    %edi,%r12d
    2936:	48 89 f5             	mov    %rsi,%rbp
    2939:	49 89 d5             	mov    %rdx,%r13
    293c:	48 89 d3             	mov    %rdx,%rbx
    293f:	eb 06                	jmp    2947 <rio_writen+0x1e>
    2941:	48 29 c3             	sub    %rax,%rbx
    2944:	48 01 c5             	add    %rax,%rbp
    2947:	48 85 db             	test   %rbx,%rbx
    294a:	74 24                	je     2970 <rio_writen+0x47>
    294c:	48 89 da             	mov    %rbx,%rdx
    294f:	48 89 ee             	mov    %rbp,%rsi
    2952:	44 89 e7             	mov    %r12d,%edi
    2955:	e8 56 e9 ff ff       	callq  12b0 <write@plt>
    295a:	48 85 c0             	test   %rax,%rax
    295d:	7f e2                	jg     2941 <rio_writen+0x18>
    295f:	e8 fc e8 ff ff       	callq  1260 <__errno_location@plt>
    2964:	83 38 04             	cmpl   $0x4,(%rax)
    2967:	75 15                	jne    297e <rio_writen+0x55>
    2969:	b8 00 00 00 00       	mov    $0x0,%eax
    296e:	eb d1                	jmp    2941 <rio_writen+0x18>
    2970:	4c 89 e8             	mov    %r13,%rax
    2973:	48 83 c4 08          	add    $0x8,%rsp
    2977:	5b                   	pop    %rbx
    2978:	5d                   	pop    %rbp
    2979:	41 5c                	pop    %r12
    297b:	41 5d                	pop    %r13
    297d:	c3                   	retq   
    297e:	48 c7 c0 ff ff ff ff 	mov    $0xffffffffffffffff,%rax
    2985:	eb ec                	jmp    2973 <rio_writen+0x4a>

0000000000002987 <rio_read>:
    2987:	41 55                	push   %r13
    2989:	41 54                	push   %r12
    298b:	55                   	push   %rbp
    298c:	53                   	push   %rbx
    298d:	48 83 ec 08          	sub    $0x8,%rsp
    2991:	48 89 fb             	mov    %rdi,%rbx
    2994:	49 89 f5             	mov    %rsi,%r13
    2997:	49 89 d4             	mov    %rdx,%r12
    299a:	eb 17                	jmp    29b3 <rio_read+0x2c>
    299c:	e8 bf e8 ff ff       	callq  1260 <__errno_location@plt>
    29a1:	83 38 04             	cmpl   $0x4,(%rax)
    29a4:	74 0d                	je     29b3 <rio_read+0x2c>
    29a6:	48 c7 c0 ff ff ff ff 	mov    $0xffffffffffffffff,%rax
    29ad:	eb 54                	jmp    2a03 <rio_read+0x7c>
    29af:	48 89 6b 08          	mov    %rbp,0x8(%rbx)
    29b3:	8b 6b 04             	mov    0x4(%rbx),%ebp
    29b6:	85 ed                	test   %ebp,%ebp
    29b8:	7f 23                	jg     29dd <rio_read+0x56>
    29ba:	48 8d 6b 10          	lea    0x10(%rbx),%rbp
    29be:	8b 3b                	mov    (%rbx),%edi
    29c0:	ba 00 20 00 00       	mov    $0x2000,%edx
    29c5:	48 89 ee             	mov    %rbp,%rsi
    29c8:	e8 43 e9 ff ff       	callq  1310 <read@plt>
    29cd:	89 43 04             	mov    %eax,0x4(%rbx)
    29d0:	85 c0                	test   %eax,%eax
    29d2:	78 c8                	js     299c <rio_read+0x15>
    29d4:	75 d9                	jne    29af <rio_read+0x28>
    29d6:	b8 00 00 00 00       	mov    $0x0,%eax
    29db:	eb 26                	jmp    2a03 <rio_read+0x7c>
    29dd:	89 e8                	mov    %ebp,%eax
    29df:	4c 39 e0             	cmp    %r12,%rax
    29e2:	72 03                	jb     29e7 <rio_read+0x60>
    29e4:	44 89 e5             	mov    %r12d,%ebp
    29e7:	4c 63 e5             	movslq %ebp,%r12
    29ea:	48 8b 73 08          	mov    0x8(%rbx),%rsi
    29ee:	4c 89 e2             	mov    %r12,%rdx
    29f1:	4c 89 ef             	mov    %r13,%rdi
    29f4:	e8 67 e9 ff ff       	callq  1360 <memcpy@plt>
    29f9:	4c 01 63 08          	add    %r12,0x8(%rbx)
    29fd:	29 6b 04             	sub    %ebp,0x4(%rbx)
    2a00:	4c 89 e0             	mov    %r12,%rax
    2a03:	48 83 c4 08          	add    $0x8,%rsp
    2a07:	5b                   	pop    %rbx
    2a08:	5d                   	pop    %rbp
    2a09:	41 5c                	pop    %r12
    2a0b:	41 5d                	pop    %r13
    2a0d:	c3                   	retq   

0000000000002a0e <rio_readlineb>:
    2a0e:	41 55                	push   %r13
    2a10:	41 54                	push   %r12
    2a12:	55                   	push   %rbp
    2a13:	53                   	push   %rbx
    2a14:	48 83 ec 18          	sub    $0x18,%rsp
    2a18:	49 89 fd             	mov    %rdi,%r13
    2a1b:	48 89 f5             	mov    %rsi,%rbp
    2a1e:	49 89 d4             	mov    %rdx,%r12
    2a21:	64 48 8b 04 25 28 00 	mov    %fs:0x28,%rax
    2a28:	00 00 
    2a2a:	48 89 44 24 08       	mov    %rax,0x8(%rsp)
    2a2f:	31 c0                	xor    %eax,%eax
    2a31:	bb 01 00 00 00       	mov    $0x1,%ebx
    2a36:	eb 18                	jmp    2a50 <rio_readlineb+0x42>
    2a38:	85 c0                	test   %eax,%eax
    2a3a:	75 65                	jne    2aa1 <rio_readlineb+0x93>
    2a3c:	48 83 fb 01          	cmp    $0x1,%rbx
    2a40:	75 3d                	jne    2a7f <rio_readlineb+0x71>
    2a42:	b8 00 00 00 00       	mov    $0x0,%eax
    2a47:	eb 3d                	jmp    2a86 <rio_readlineb+0x78>
    2a49:	48 83 c3 01          	add    $0x1,%rbx
    2a4d:	48 89 d5             	mov    %rdx,%rbp
    2a50:	4c 39 e3             	cmp    %r12,%rbx
    2a53:	73 2a                	jae    2a7f <rio_readlineb+0x71>
    2a55:	48 8d 74 24 07       	lea    0x7(%rsp),%rsi
    2a5a:	ba 01 00 00 00       	mov    $0x1,%edx
    2a5f:	4c 89 ef             	mov    %r13,%rdi
    2a62:	e8 20 ff ff ff       	callq  2987 <rio_read>
    2a67:	83 f8 01             	cmp    $0x1,%eax
    2a6a:	75 cc                	jne    2a38 <rio_readlineb+0x2a>
    2a6c:	48 8d 55 01          	lea    0x1(%rbp),%rdx
    2a70:	0f b6 44 24 07       	movzbl 0x7(%rsp),%eax
    2a75:	88 45 00             	mov    %al,0x0(%rbp)
    2a78:	3c 0a                	cmp    $0xa,%al
    2a7a:	75 cd                	jne    2a49 <rio_readlineb+0x3b>
    2a7c:	48 89 d5             	mov    %rdx,%rbp
    2a7f:	c6 45 00 00          	movb   $0x0,0x0(%rbp)
    2a83:	48 89 d8             	mov    %rbx,%rax
    2a86:	48 8b 4c 24 08       	mov    0x8(%rsp),%rcx
    2a8b:	64 48 33 0c 25 28 00 	xor    %fs:0x28,%rcx
    2a92:	00 00 
    2a94:	75 14                	jne    2aaa <rio_readlineb+0x9c>
    2a96:	48 83 c4 18          	add    $0x18,%rsp
    2a9a:	5b                   	pop    %rbx
    2a9b:	5d                   	pop    %rbp
    2a9c:	41 5c                	pop    %r12
    2a9e:	41 5d                	pop    %r13
    2aa0:	c3                   	retq   
    2aa1:	48 c7 c0 ff ff ff ff 	mov    $0xffffffffffffffff,%rax
    2aa8:	eb dc                	jmp    2a86 <rio_readlineb+0x78>
    2aaa:	e8 11 e8 ff ff       	callq  12c0 <__stack_chk_fail@plt>

0000000000002aaf <urlencode>:
    2aaf:	41 54                	push   %r12
    2ab1:	55                   	push   %rbp
    2ab2:	53                   	push   %rbx
    2ab3:	48 83 ec 10          	sub    $0x10,%rsp
    2ab7:	48 89 fb             	mov    %rdi,%rbx
    2aba:	48 89 f5             	mov    %rsi,%rbp
    2abd:	64 48 8b 04 25 28 00 	mov    %fs:0x28,%rax
    2ac4:	00 00 
    2ac6:	48 89 44 24 08       	mov    %rax,0x8(%rsp)
    2acb:	31 c0                	xor    %eax,%eax
    2acd:	48 c7 c1 ff ff ff ff 	mov    $0xffffffffffffffff,%rcx
    2ad4:	f2 ae                	repnz scas %es:(%rdi),%al
    2ad6:	48 f7 d1             	not    %rcx
    2ad9:	8d 41 ff             	lea    -0x1(%rcx),%eax
    2adc:	eb 0f                	jmp    2aed <urlencode+0x3e>
    2ade:	44 88 45 00          	mov    %r8b,0x0(%rbp)
    2ae2:	48 8d 6d 01          	lea    0x1(%rbp),%rbp
    2ae6:	48 83 c3 01          	add    $0x1,%rbx
    2aea:	44 89 e0             	mov    %r12d,%eax
    2aed:	44 8d 60 ff          	lea    -0x1(%rax),%r12d
    2af1:	85 c0                	test   %eax,%eax
    2af3:	0f 84 a8 00 00 00    	je     2ba1 <urlencode+0xf2>
    2af9:	44 0f b6 03          	movzbl (%rbx),%r8d
    2afd:	41 80 f8 2a          	cmp    $0x2a,%r8b
    2b01:	0f 94 c2             	sete   %dl
    2b04:	41 80 f8 2d          	cmp    $0x2d,%r8b
    2b08:	0f 94 c0             	sete   %al
    2b0b:	08 c2                	or     %al,%dl
    2b0d:	75 cf                	jne    2ade <urlencode+0x2f>
    2b0f:	41 80 f8 2e          	cmp    $0x2e,%r8b
    2b13:	74 c9                	je     2ade <urlencode+0x2f>
    2b15:	41 80 f8 5f          	cmp    $0x5f,%r8b
    2b19:	74 c3                	je     2ade <urlencode+0x2f>
    2b1b:	41 8d 40 d0          	lea    -0x30(%r8),%eax
    2b1f:	3c 09                	cmp    $0x9,%al
    2b21:	76 bb                	jbe    2ade <urlencode+0x2f>
    2b23:	41 8d 40 bf          	lea    -0x41(%r8),%eax
    2b27:	3c 19                	cmp    $0x19,%al
    2b29:	76 b3                	jbe    2ade <urlencode+0x2f>
    2b2b:	41 8d 40 9f          	lea    -0x61(%r8),%eax
    2b2f:	3c 19                	cmp    $0x19,%al
    2b31:	76 ab                	jbe    2ade <urlencode+0x2f>
    2b33:	41 80 f8 20          	cmp    $0x20,%r8b
    2b37:	74 56                	je     2b8f <urlencode+0xe0>
    2b39:	41 8d 40 e0          	lea    -0x20(%r8),%eax
    2b3d:	3c 5f                	cmp    $0x5f,%al
    2b3f:	0f 96 c2             	setbe  %dl
    2b42:	41 80 f8 09          	cmp    $0x9,%r8b
    2b46:	0f 94 c0             	sete   %al
    2b49:	08 c2                	or     %al,%dl
    2b4b:	74 4f                	je     2b9c <urlencode+0xed>
    2b4d:	48 89 e7             	mov    %rsp,%rdi
    2b50:	45 0f b6 c0          	movzbl %r8b,%r8d
    2b54:	48 8d 0d 3a 1c 00 00 	lea    0x1c3a(%rip),%rcx        # 4795 <trans_char+0xa5>
    2b5b:	ba 08 00 00 00       	mov    $0x8,%edx
    2b60:	be 01 00 00 00       	mov    $0x1,%esi
    2b65:	b8 00 00 00 00       	mov    $0x0,%eax
    2b6a:	e8 d1 e8 ff ff       	callq  1440 <__sprintf_chk@plt>
    2b6f:	0f b6 04 24          	movzbl (%rsp),%eax
    2b73:	88 45 00             	mov    %al,0x0(%rbp)
    2b76:	0f b6 44 24 01       	movzbl 0x1(%rsp),%eax
    2b7b:	88 45 01             	mov    %al,0x1(%rbp)
    2b7e:	0f b6 44 24 02       	movzbl 0x2(%rsp),%eax
    2b83:	88 45 02             	mov    %al,0x2(%rbp)
    2b86:	48 8d 6d 03          	lea    0x3(%rbp),%rbp
    2b8a:	e9 57 ff ff ff       	jmpq   2ae6 <urlencode+0x37>
    2b8f:	c6 45 00 2b          	movb   $0x2b,0x0(%rbp)
    2b93:	48 8d 6d 01          	lea    0x1(%rbp),%rbp
    2b97:	e9 4a ff ff ff       	jmpq   2ae6 <urlencode+0x37>
    2b9c:	b8 ff ff ff ff       	mov    $0xffffffff,%eax
    2ba1:	48 8b 74 24 08       	mov    0x8(%rsp),%rsi
    2ba6:	64 48 33 34 25 28 00 	xor    %fs:0x28,%rsi
    2bad:	00 00 
    2baf:	75 09                	jne    2bba <urlencode+0x10b>
    2bb1:	48 83 c4 10          	add    $0x10,%rsp
    2bb5:	5b                   	pop    %rbx
    2bb6:	5d                   	pop    %rbp
    2bb7:	41 5c                	pop    %r12
    2bb9:	c3                   	retq   
    2bba:	e8 01 e7 ff ff       	callq  12c0 <__stack_chk_fail@plt>

0000000000002bbf <submitr>:
    2bbf:	f3 0f 1e fa          	endbr64 
    2bc3:	41 57                	push   %r15
    2bc5:	41 56                	push   %r14
    2bc7:	41 55                	push   %r13
    2bc9:	41 54                	push   %r12
    2bcb:	55                   	push   %rbp
    2bcc:	53                   	push   %rbx
    2bcd:	4c 8d 9c 24 00 60 ff 	lea    -0xa000(%rsp),%r11
    2bd4:	ff 
    2bd5:	48 81 ec 00 10 00 00 	sub    $0x1000,%rsp
    2bdc:	48 83 0c 24 00       	orq    $0x0,(%rsp)
    2be1:	4c 39 dc             	cmp    %r11,%rsp
    2be4:	75 ef                	jne    2bd5 <submitr+0x16>
    2be6:	48 83 ec 68          	sub    $0x68,%rsp
    2bea:	49 89 fc             	mov    %rdi,%r12
    2bed:	89 74 24 14          	mov    %esi,0x14(%rsp)
    2bf1:	49 89 d6             	mov    %rdx,%r14
    2bf4:	48 89 4c 24 08       	mov    %rcx,0x8(%rsp)
    2bf9:	4c 89 44 24 18       	mov    %r8,0x18(%rsp)
    2bfe:	4d 89 cd             	mov    %r9,%r13
    2c01:	48 8b ac 24 a0 a0 00 	mov    0xa0a0(%rsp),%rbp
    2c08:	00 
    2c09:	64 48 8b 04 25 28 00 	mov    %fs:0x28,%rax
    2c10:	00 00 
    2c12:	48 89 84 24 58 a0 00 	mov    %rax,0xa058(%rsp)
    2c19:	00 
    2c1a:	31 c0                	xor    %eax,%eax
    2c1c:	c7 44 24 2c 00 00 00 	movl   $0x0,0x2c(%rsp)
    2c23:	00 
    2c24:	ba 00 00 00 00       	mov    $0x0,%edx
    2c29:	be 01 00 00 00       	mov    $0x1,%esi
    2c2e:	bf 02 00 00 00       	mov    $0x2,%edi
    2c33:	e8 18 e8 ff ff       	callq  1450 <socket@plt>
    2c38:	85 c0                	test   %eax,%eax
    2c3a:	0f 88 a0 02 00 00    	js     2ee0 <submitr+0x321>
    2c40:	89 c3                	mov    %eax,%ebx
    2c42:	4c 89 e7             	mov    %r12,%rdi
    2c45:	e8 e6 e6 ff ff       	callq  1330 <gethostbyname@plt>
    2c4a:	48 85 c0             	test   %rax,%rax
    2c4d:	0f 84 d9 02 00 00    	je     2f2c <submitr+0x36d>
    2c53:	4c 8d 7c 24 30       	lea    0x30(%rsp),%r15
    2c58:	48 c7 44 24 30 00 00 	movq   $0x0,0x30(%rsp)
    2c5f:	00 00 
    2c61:	48 c7 44 24 38 00 00 	movq   $0x0,0x38(%rsp)
    2c68:	00 00 
    2c6a:	66 c7 44 24 30 02 00 	movw   $0x2,0x30(%rsp)
    2c71:	48 63 50 14          	movslq 0x14(%rax),%rdx
    2c75:	48 8b 40 18          	mov    0x18(%rax),%rax
    2c79:	48 8b 30             	mov    (%rax),%rsi
    2c7c:	48 8d 7c 24 34       	lea    0x34(%rsp),%rdi
    2c81:	b9 0c 00 00 00       	mov    $0xc,%ecx
    2c86:	e8 b5 e6 ff ff       	callq  1340 <__memmove_chk@plt>
    2c8b:	0f b7 74 24 14       	movzwl 0x14(%rsp),%esi
    2c90:	66 c1 c6 08          	rol    $0x8,%si
    2c94:	66 89 74 24 32       	mov    %si,0x32(%rsp)
    2c99:	ba 10 00 00 00       	mov    $0x10,%edx
    2c9e:	4c 89 fe             	mov    %r15,%rsi
    2ca1:	89 df                	mov    %ebx,%edi
    2ca3:	e8 68 e7 ff ff       	callq  1410 <connect@plt>
    2ca8:	85 c0                	test   %eax,%eax
    2caa:	0f 88 e4 02 00 00    	js     2f94 <submitr+0x3d5>
    2cb0:	49 c7 c0 ff ff ff ff 	mov    $0xffffffffffffffff,%r8
    2cb7:	b8 00 00 00 00       	mov    $0x0,%eax
    2cbc:	4c 89 c1             	mov    %r8,%rcx
    2cbf:	4c 89 ef             	mov    %r13,%rdi
    2cc2:	f2 ae                	repnz scas %es:(%rdi),%al
    2cc4:	48 89 ca             	mov    %rcx,%rdx
    2cc7:	48 f7 d2             	not    %rdx
    2cca:	4c 89 c1             	mov    %r8,%rcx
    2ccd:	4c 89 f7             	mov    %r14,%rdi
    2cd0:	f2 ae                	repnz scas %es:(%rdi),%al
    2cd2:	48 f7 d1             	not    %rcx
    2cd5:	48 89 ce             	mov    %rcx,%rsi
    2cd8:	4c 89 c1             	mov    %r8,%rcx
    2cdb:	48 8b 7c 24 08       	mov    0x8(%rsp),%rdi
    2ce0:	f2 ae                	repnz scas %es:(%rdi),%al
    2ce2:	48 f7 d1             	not    %rcx
    2ce5:	48 8d 74 0e fe       	lea    -0x2(%rsi,%rcx,1),%rsi
    2cea:	4c 89 c1             	mov    %r8,%rcx
    2ced:	48 8b 7c 24 18       	mov    0x18(%rsp),%rdi
    2cf2:	f2 ae                	repnz scas %es:(%rdi),%al
    2cf4:	48 89 c8             	mov    %rcx,%rax
    2cf7:	48 f7 d0             	not    %rax
    2cfa:	48 8d 4c 06 ff       	lea    -0x1(%rsi,%rax,1),%rcx
    2cff:	48 8d 44 52 fd       	lea    -0x3(%rdx,%rdx,2),%rax
    2d04:	48 8d 84 01 80 00 00 	lea    0x80(%rcx,%rax,1),%rax
    2d0b:	00 
    2d0c:	48 3d 00 20 00 00    	cmp    $0x2000,%rax
    2d12:	0f 87 d6 02 00 00    	ja     2fee <submitr+0x42f>
    2d18:	48 8d b4 24 50 40 00 	lea    0x4050(%rsp),%rsi
    2d1f:	00 
    2d20:	b9 00 04 00 00       	mov    $0x400,%ecx
    2d25:	b8 00 00 00 00       	mov    $0x0,%eax
    2d2a:	48 89 f7             	mov    %rsi,%rdi
    2d2d:	f3 48 ab             	rep stos %rax,%es:(%rdi)
    2d30:	4c 89 ef             	mov    %r13,%rdi
    2d33:	e8 77 fd ff ff       	callq  2aaf <urlencode>
    2d38:	85 c0                	test   %eax,%eax
    2d3a:	0f 88 21 03 00 00    	js     3061 <submitr+0x4a2>
    2d40:	4c 8d bc 24 50 20 00 	lea    0x2050(%rsp),%r15
    2d47:	00 
    2d48:	41 54                	push   %r12
    2d4a:	48 8d 84 24 58 40 00 	lea    0x4058(%rsp),%rax
    2d51:	00 
    2d52:	50                   	push   %rax
    2d53:	4d 89 f1             	mov    %r14,%r9
    2d56:	4c 8b 44 24 18       	mov    0x18(%rsp),%r8
    2d5b:	48 8d 0d c6 19 00 00 	lea    0x19c6(%rip),%rcx        # 4728 <trans_char+0x38>
    2d62:	ba 00 20 00 00       	mov    $0x2000,%edx
    2d67:	be 01 00 00 00       	mov    $0x1,%esi
    2d6c:	4c 89 ff             	mov    %r15,%rdi
    2d6f:	b8 00 00 00 00       	mov    $0x0,%eax
    2d74:	e8 c7 e6 ff ff       	callq  1440 <__sprintf_chk@plt>
    2d79:	48 c7 c1 ff ff ff ff 	mov    $0xffffffffffffffff,%rcx
    2d80:	b8 00 00 00 00       	mov    $0x0,%eax
    2d85:	4c 89 ff             	mov    %r15,%rdi
    2d88:	f2 ae                	repnz scas %es:(%rdi),%al
    2d8a:	48 f7 d1             	not    %rcx
    2d8d:	48 8d 51 ff          	lea    -0x1(%rcx),%rdx
    2d91:	4c 89 fe             	mov    %r15,%rsi
    2d94:	89 df                	mov    %ebx,%edi
    2d96:	e8 8e fb ff ff       	callq  2929 <rio_writen>
    2d9b:	48 83 c4 10          	add    $0x10,%rsp
    2d9f:	48 85 c0             	test   %rax,%rax
    2da2:	0f 88 44 03 00 00    	js     30ec <submitr+0x52d>
    2da8:	4c 8d 64 24 40       	lea    0x40(%rsp),%r12
    2dad:	89 de                	mov    %ebx,%esi
    2daf:	4c 89 e7             	mov    %r12,%rdi
    2db2:	e8 2a fb ff ff       	callq  28e1 <rio_readinitb>
    2db7:	48 8d b4 24 50 20 00 	lea    0x2050(%rsp),%rsi
    2dbe:	00 
    2dbf:	ba 00 20 00 00       	mov    $0x2000,%edx
    2dc4:	4c 89 e7             	mov    %r12,%rdi
    2dc7:	e8 42 fc ff ff       	callq  2a0e <rio_readlineb>
    2dcc:	48 85 c0             	test   %rax,%rax
    2dcf:	0f 8e 86 03 00 00    	jle    315b <submitr+0x59c>
    2dd5:	48 8d 4c 24 2c       	lea    0x2c(%rsp),%rcx
    2dda:	48 8d 94 24 50 60 00 	lea    0x6050(%rsp),%rdx
    2de1:	00 
    2de2:	48 8d bc 24 50 20 00 	lea    0x2050(%rsp),%rdi
    2de9:	00 
    2dea:	4c 8d 84 24 50 80 00 	lea    0x8050(%rsp),%r8
    2df1:	00 
    2df2:	48 8d 35 a3 19 00 00 	lea    0x19a3(%rip),%rsi        # 479c <trans_char+0xac>
    2df9:	b8 00 00 00 00       	mov    $0x0,%eax
    2dfe:	e8 8d e5 ff ff       	callq  1390 <__isoc99_sscanf@plt>
    2e03:	48 8d b4 24 50 20 00 	lea    0x2050(%rsp),%rsi
    2e0a:	00 
    2e0b:	b9 03 00 00 00       	mov    $0x3,%ecx
    2e10:	48 8d 3d 9c 19 00 00 	lea    0x199c(%rip),%rdi        # 47b3 <trans_char+0xc3>
    2e17:	f3 a6                	repz cmpsb %es:(%rdi),%ds:(%rsi)
    2e19:	0f 97 c0             	seta   %al
    2e1c:	1c 00                	sbb    $0x0,%al
    2e1e:	84 c0                	test   %al,%al
    2e20:	0f 84 b3 03 00 00    	je     31d9 <submitr+0x61a>
    2e26:	48 8d b4 24 50 20 00 	lea    0x2050(%rsp),%rsi
    2e2d:	00 
    2e2e:	48 8d 7c 24 40       	lea    0x40(%rsp),%rdi
    2e33:	ba 00 20 00 00       	mov    $0x2000,%edx
    2e38:	e8 d1 fb ff ff       	callq  2a0e <rio_readlineb>
    2e3d:	48 85 c0             	test   %rax,%rax
    2e40:	7f c1                	jg     2e03 <submitr+0x244>
    2e42:	48 b8 45 72 72 6f 72 	movabs $0x43203a726f727245,%rax
    2e49:	3a 20 43 
    2e4c:	48 ba 6c 69 65 6e 74 	movabs $0x6e7520746e65696c,%rdx
    2e53:	20 75 6e 
    2e56:	48 89 45 00          	mov    %rax,0x0(%rbp)
    2e5a:	48 89 55 08          	mov    %rdx,0x8(%rbp)
    2e5e:	48 b8 61 62 6c 65 20 	movabs $0x206f7420656c6261,%rax
    2e65:	74 6f 20 
    2e68:	48 ba 72 65 61 64 20 	movabs $0x6165682064616572,%rdx
    2e6f:	68 65 61 
    2e72:	48 89 45 10          	mov    %rax,0x10(%rbp)
    2e76:	48 89 55 18          	mov    %rdx,0x18(%rbp)
    2e7a:	48 b8 64 65 72 73 20 	movabs $0x6f72662073726564,%rax
    2e81:	66 72 6f 
    2e84:	48 ba 6d 20 74 68 65 	movabs $0x657220656874206d,%rdx
    2e8b:	20 72 65 
    2e8e:	48 89 45 20          	mov    %rax,0x20(%rbp)
    2e92:	48 89 55 28          	mov    %rdx,0x28(%rbp)
    2e96:	48 b8 73 75 6c 74 20 	movabs $0x72657320746c7573,%rax
    2e9d:	73 65 72 
    2ea0:	48 89 45 30          	mov    %rax,0x30(%rbp)
    2ea4:	c7 45 38 76 65 72 00 	movl   $0x726576,0x38(%rbp)
    2eab:	89 df                	mov    %ebx,%edi
    2ead:	e8 4e e4 ff ff       	callq  1300 <close@plt>
    2eb2:	b8 ff ff ff ff       	mov    $0xffffffff,%eax
    2eb7:	48 8b 9c 24 58 a0 00 	mov    0xa058(%rsp),%rbx
    2ebe:	00 
    2ebf:	64 48 33 1c 25 28 00 	xor    %fs:0x28,%rbx
    2ec6:	00 00 
    2ec8:	0f 85 7e 04 00 00    	jne    334c <submitr+0x78d>
    2ece:	48 81 c4 68 a0 00 00 	add    $0xa068,%rsp
    2ed5:	5b                   	pop    %rbx
    2ed6:	5d                   	pop    %rbp
    2ed7:	41 5c                	pop    %r12
    2ed9:	41 5d                	pop    %r13
    2edb:	41 5e                	pop    %r14
    2edd:	41 5f                	pop    %r15
    2edf:	c3                   	retq   
    2ee0:	48 b8 45 72 72 6f 72 	movabs $0x43203a726f727245,%rax
    2ee7:	3a 20 43 
    2eea:	48 ba 6c 69 65 6e 74 	movabs $0x6e7520746e65696c,%rdx
    2ef1:	20 75 6e 
    2ef4:	48 89 45 00          	mov    %rax,0x0(%rbp)
    2ef8:	48 89 55 08          	mov    %rdx,0x8(%rbp)
    2efc:	48 b8 61 62 6c 65 20 	movabs $0x206f7420656c6261,%rax
    2f03:	74 6f 20 
    2f06:	48 ba 63 72 65 61 74 	movabs $0x7320657461657263,%rdx
    2f0d:	65 20 73 
    2f10:	48 89 45 10          	mov    %rax,0x10(%rbp)
    2f14:	48 89 55 18          	mov    %rdx,0x18(%rbp)
    2f18:	c7 45 20 6f 63 6b 65 	movl   $0x656b636f,0x20(%rbp)
    2f1f:	66 c7 45 24 74 00    	movw   $0x74,0x24(%rbp)
    2f25:	b8 ff ff ff ff       	mov    $0xffffffff,%eax
    2f2a:	eb 8b                	jmp    2eb7 <submitr+0x2f8>
    2f2c:	48 b8 45 72 72 6f 72 	movabs $0x44203a726f727245,%rax
    2f33:	3a 20 44 
    2f36:	48 ba 4e 53 20 69 73 	movabs $0x6e7520736920534e,%rdx
    2f3d:	20 75 6e 
    2f40:	48 89 45 00          	mov    %rax,0x0(%rbp)
    2f44:	48 89 55 08          	mov    %rdx,0x8(%rbp)
    2f48:	48 b8 61 62 6c 65 20 	movabs $0x206f7420656c6261,%rax
    2f4f:	74 6f 20 
    2f52:	48 ba 72 65 73 6f 6c 	movabs $0x2065766c6f736572,%rdx
    2f59:	76 65 20 
    2f5c:	48 89 45 10          	mov    %rax,0x10(%rbp)
    2f60:	48 89 55 18          	mov    %rdx,0x18(%rbp)
    2f64:	48 b8 73 65 72 76 65 	movabs $0x6120726576726573,%rax
    2f6b:	72 20 61 
    2f6e:	48 89 45 20          	mov    %rax,0x20(%rbp)
    2f72:	c7 45 28 64 64 72 65 	movl   $0x65726464,0x28(%rbp)
    2f79:	66 c7 45 2c 73 73    	movw   $0x7373,0x2c(%rbp)
    2f7f:	c6 45 2e 00          	movb   $0x0,0x2e(%rbp)
    2f83:	89 df                	mov    %ebx,%edi
    2f85:	e8 76 e3 ff ff       	callq  1300 <close@plt>
    2f8a:	b8 ff ff ff ff       	mov    $0xffffffff,%eax
    2f8f:	e9 23 ff ff ff       	jmpq   2eb7 <submitr+0x2f8>
    2f94:	48 b8 45 72 72 6f 72 	movabs $0x55203a726f727245,%rax
    2f9b:	3a 20 55 
    2f9e:	48 ba 6e 61 62 6c 65 	movabs $0x6f7420656c62616e,%rdx
    2fa5:	20 74 6f 
    2fa8:	48 89 45 00          	mov    %rax,0x0(%rbp)
    2fac:	48 89 55 08          	mov    %rdx,0x8(%rbp)
    2fb0:	48 b8 20 63 6f 6e 6e 	movabs $0x7463656e6e6f6320,%rax
    2fb7:	65 63 74 
    2fba:	48 ba 20 74 6f 20 74 	movabs $0x20656874206f7420,%rdx
    2fc1:	68 65 20 
    2fc4:	48 89 45 10          	mov    %rax,0x10(%rbp)
    2fc8:	48 89 55 18          	mov    %rdx,0x18(%rbp)
    2fcc:	c7 45 20 73 65 72 76 	movl   $0x76726573,0x20(%rbp)
    2fd3:	66 c7 45 24 65 72    	movw   $0x7265,0x24(%rbp)
    2fd9:	c6 45 26 00          	movb   $0x0,0x26(%rbp)
    2fdd:	89 df                	mov    %ebx,%edi
    2fdf:	e8 1c e3 ff ff       	callq  1300 <close@plt>
    2fe4:	b8 ff ff ff ff       	mov    $0xffffffff,%eax
    2fe9:	e9 c9 fe ff ff       	jmpq   2eb7 <submitr+0x2f8>
    2fee:	48 b8 45 72 72 6f 72 	movabs $0x52203a726f727245,%rax
    2ff5:	3a 20 52 
    2ff8:	48 ba 65 73 75 6c 74 	movabs $0x747320746c757365,%rdx
    2fff:	20 73 74 
    3002:	48 89 45 00          	mov    %rax,0x0(%rbp)
    3006:	48 89 55 08          	mov    %rdx,0x8(%rbp)
    300a:	48 b8 72 69 6e 67 20 	movabs $0x6f6f7420676e6972,%rax
    3011:	74 6f 6f 
    3014:	48 ba 20 6c 61 72 67 	movabs $0x202e656772616c20,%rdx
    301b:	65 2e 20 
    301e:	48 89 45 10          	mov    %rax,0x10(%rbp)
    3022:	48 89 55 18          	mov    %rdx,0x18(%rbp)
    3026:	48 b8 49 6e 63 72 65 	movabs $0x6573616572636e49,%rax
    302d:	61 73 65 
    3030:	48 ba 20 53 55 42 4d 	movabs $0x5254494d42555320,%rdx
    3037:	49 54 52 
    303a:	48 89 45 20          	mov    %rax,0x20(%rbp)
    303e:	48 89 55 28          	mov    %rdx,0x28(%rbp)
    3042:	48 b8 5f 4d 41 58 42 	movabs $0x46554258414d5f,%rax
    3049:	55 46 00 
    304c:	48 89 45 30          	mov    %rax,0x30(%rbp)
    3050:	89 df                	mov    %ebx,%edi
    3052:	e8 a9 e2 ff ff       	callq  1300 <close@plt>
    3057:	b8 ff ff ff ff       	mov    $0xffffffff,%eax
    305c:	e9 56 fe ff ff       	jmpq   2eb7 <submitr+0x2f8>
    3061:	48 b8 45 72 72 6f 72 	movabs $0x52203a726f727245,%rax
    3068:	3a 20 52 
    306b:	48 ba 65 73 75 6c 74 	movabs $0x747320746c757365,%rdx
    3072:	20 73 74 
    3075:	48 89 45 00          	mov    %rax,0x0(%rbp)
    3079:	48 89 55 08          	mov    %rdx,0x8(%rbp)
    307d:	48 b8 72 69 6e 67 20 	movabs $0x6e6f6320676e6972,%rax
    3084:	63 6f 6e 
    3087:	48 ba 74 61 69 6e 73 	movabs $0x6e6120736e696174,%rdx
    308e:	20 61 6e 
    3091:	48 89 45 10          	mov    %rax,0x10(%rbp)
    3095:	48 89 55 18          	mov    %rdx,0x18(%rbp)
    3099:	48 b8 20 69 6c 6c 65 	movabs $0x6c6167656c6c6920,%rax
    30a0:	67 61 6c 
    30a3:	48 ba 20 6f 72 20 75 	movabs $0x72706e7520726f20,%rdx
    30aa:	6e 70 72 
    30ad:	48 89 45 20          	mov    %rax,0x20(%rbp)
    30b1:	48 89 55 28          	mov    %rdx,0x28(%rbp)
    30b5:	48 b8 69 6e 74 61 62 	movabs $0x20656c6261746e69,%rax
    30bc:	6c 65 20 
    30bf:	48 ba 63 68 61 72 61 	movabs $0x6574636172616863,%rdx
    30c6:	63 74 65 
    30c9:	48 89 45 30          	mov    %rax,0x30(%rbp)
    30cd:	48 89 55 38          	mov    %rdx,0x38(%rbp)
    30d1:	66 c7 45 40 72 2e    	movw   $0x2e72,0x40(%rbp)
    30d7:	c6 45 42 00          	movb   $0x0,0x42(%rbp)
    30db:	89 df                	mov    %ebx,%edi
    30dd:	e8 1e e2 ff ff       	callq  1300 <close@plt>
    30e2:	b8 ff ff ff ff       	mov    $0xffffffff,%eax
    30e7:	e9 cb fd ff ff       	jmpq   2eb7 <submitr+0x2f8>
    30ec:	48 b8 45 72 72 6f 72 	movabs $0x43203a726f727245,%rax
    30f3:	3a 20 43 
    30f6:	48 ba 6c 69 65 6e 74 	movabs $0x6e7520746e65696c,%rdx
    30fd:	20 75 6e 
    3100:	48 89 45 00          	mov    %rax,0x0(%rbp)
    3104:	48 89 55 08          	mov    %rdx,0x8(%rbp)
    3108:	48 b8 61 62 6c 65 20 	movabs $0x206f7420656c6261,%rax
    310f:	74 6f 20 
    3112:	48 ba 77 72 69 74 65 	movabs $0x6f74206574697277,%rdx
    3119:	20 74 6f 
    311c:	48 89 45 10          	mov    %rax,0x10(%rbp)
    3120:	48 89 55 18          	mov    %rdx,0x18(%rbp)
    3124:	48 b8 20 74 68 65 20 	movabs $0x7365722065687420,%rax
    312b:	72 65 73 
    312e:	48 ba 75 6c 74 20 73 	movabs $0x7672657320746c75,%rdx
    3135:	65 72 76 
    3138:	48 89 45 20          	mov    %rax,0x20(%rbp)
    313c:	48 89 55 28          	mov    %rdx,0x28(%rbp)
    3140:	66 c7 45 30 65 72    	movw   $0x7265,0x30(%rbp)
    3146:	c6 45 32 00          	movb   $0x0,0x32(%rbp)
    314a:	89 df                	mov    %ebx,%edi
    314c:	e8 af e1 ff ff       	callq  1300 <close@plt>
    3151:	b8 ff ff ff ff       	mov    $0xffffffff,%eax
    3156:	e9 5c fd ff ff       	jmpq   2eb7 <submitr+0x2f8>
    315b:	48 b8 45 72 72 6f 72 	movabs $0x43203a726f727245,%rax
    3162:	3a 20 43 
    3165:	48 ba 6c 69 65 6e 74 	movabs $0x6e7520746e65696c,%rdx
    316c:	20 75 6e 
    316f:	48 89 45 00          	mov    %rax,0x0(%rbp)
    3173:	48 89 55 08          	mov    %rdx,0x8(%rbp)
    3177:	48 b8 61 62 6c 65 20 	movabs $0x206f7420656c6261,%rax
    317e:	74 6f 20 
    3181:	48 ba 72 65 61 64 20 	movabs $0x7269662064616572,%rdx
    3188:	66 69 72 
    318b:	48 89 45 10          	mov    %rax,0x10(%rbp)
    318f:	48 89 55 18          	mov    %rdx,0x18(%rbp)
    3193:	48 b8 73 74 20 68 65 	movabs $0x6564616568207473,%rax
    319a:	61 64 65 
    319d:	48 ba 72 20 66 72 6f 	movabs $0x72206d6f72662072,%rdx
    31a4:	6d 20 72 
    31a7:	48 89 45 20          	mov    %rax,0x20(%rbp)
    31ab:	48 89 55 28          	mov    %rdx,0x28(%rbp)
    31af:	48 b8 65 73 75 6c 74 	movabs $0x657320746c757365,%rax
    31b6:	20 73 65 
    31b9:	48 89 45 30          	mov    %rax,0x30(%rbp)
    31bd:	c7 45 38 72 76 65 72 	movl   $0x72657672,0x38(%rbp)
    31c4:	c6 45 3c 00          	movb   $0x0,0x3c(%rbp)
    31c8:	89 df                	mov    %ebx,%edi
    31ca:	e8 31 e1 ff ff       	callq  1300 <close@plt>
    31cf:	b8 ff ff ff ff       	mov    $0xffffffff,%eax
    31d4:	e9 de fc ff ff       	jmpq   2eb7 <submitr+0x2f8>
    31d9:	48 8d b4 24 50 20 00 	lea    0x2050(%rsp),%rsi
    31e0:	00 
    31e1:	48 8d 7c 24 40       	lea    0x40(%rsp),%rdi
    31e6:	ba 00 20 00 00       	mov    $0x2000,%edx
    31eb:	e8 1e f8 ff ff       	callq  2a0e <rio_readlineb>
    31f0:	48 85 c0             	test   %rax,%rax
    31f3:	0f 8e 96 00 00 00    	jle    328f <submitr+0x6d0>
    31f9:	44 8b 44 24 2c       	mov    0x2c(%rsp),%r8d
    31fe:	41 81 f8 c8 00 00 00 	cmp    $0xc8,%r8d
    3205:	0f 85 08 01 00 00    	jne    3313 <submitr+0x754>
    320b:	48 8d b4 24 50 20 00 	lea    0x2050(%rsp),%rsi
    3212:	00 
    3213:	48 89 ef             	mov    %rbp,%rdi
    3216:	e8 75 e0 ff ff       	callq  1290 <strcpy@plt>
    321b:	89 df                	mov    %ebx,%edi
    321d:	e8 de e0 ff ff       	callq  1300 <close@plt>
    3222:	b9 04 00 00 00       	mov    $0x4,%ecx
    3227:	48 8d 3d 7f 15 00 00 	lea    0x157f(%rip),%rdi        # 47ad <trans_char+0xbd>
    322e:	48 89 ee             	mov    %rbp,%rsi
    3231:	f3 a6                	repz cmpsb %es:(%rdi),%ds:(%rsi)
    3233:	0f 97 c0             	seta   %al
    3236:	1c 00                	sbb    $0x0,%al
    3238:	0f be c0             	movsbl %al,%eax
    323b:	85 c0                	test   %eax,%eax
    323d:	0f 84 74 fc ff ff    	je     2eb7 <submitr+0x2f8>
    3243:	b9 05 00 00 00       	mov    $0x5,%ecx
    3248:	48 8d 3d 62 15 00 00 	lea    0x1562(%rip),%rdi        # 47b1 <trans_char+0xc1>
    324f:	48 89 ee             	mov    %rbp,%rsi
    3252:	f3 a6                	repz cmpsb %es:(%rdi),%ds:(%rsi)
    3254:	0f 97 c0             	seta   %al
    3257:	1c 00                	sbb    $0x0,%al
    3259:	0f be c0             	movsbl %al,%eax
    325c:	85 c0                	test   %eax,%eax
    325e:	0f 84 53 fc ff ff    	je     2eb7 <submitr+0x2f8>
    3264:	b9 03 00 00 00       	mov    $0x3,%ecx
    3269:	48 8d 3d 46 15 00 00 	lea    0x1546(%rip),%rdi        # 47b6 <trans_char+0xc6>
    3270:	48 89 ee             	mov    %rbp,%rsi
    3273:	f3 a6                	repz cmpsb %es:(%rdi),%ds:(%rsi)
    3275:	0f 97 c0             	seta   %al
    3278:	1c 00                	sbb    $0x0,%al
    327a:	0f be c0             	movsbl %al,%eax
    327d:	85 c0                	test   %eax,%eax
    327f:	0f 84 32 fc ff ff    	je     2eb7 <submitr+0x2f8>
    3285:	b8 ff ff ff ff       	mov    $0xffffffff,%eax
    328a:	e9 28 fc ff ff       	jmpq   2eb7 <submitr+0x2f8>
    328f:	48 b8 45 72 72 6f 72 	movabs $0x43203a726f727245,%rax
    3296:	3a 20 43 
    3299:	48 ba 6c 69 65 6e 74 	movabs $0x6e7520746e65696c,%rdx
    32a0:	20 75 6e 
    32a3:	48 89 45 00          	mov    %rax,0x0(%rbp)
    32a7:	48 89 55 08          	mov    %rdx,0x8(%rbp)
    32ab:	48 b8 61 62 6c 65 20 	movabs $0x206f7420656c6261,%rax
    32b2:	74 6f 20 
    32b5:	48 ba 72 65 61 64 20 	movabs $0x6174732064616572,%rdx
    32bc:	73 74 61 
    32bf:	48 89 45 10          	mov    %rax,0x10(%rbp)
    32c3:	48 89 55 18          	mov    %rdx,0x18(%rbp)
    32c7:	48 b8 74 75 73 20 6d 	movabs $0x7373656d20737574,%rax
    32ce:	65 73 73 
    32d1:	48 ba 61 67 65 20 66 	movabs $0x6d6f726620656761,%rdx
    32d8:	72 6f 6d 
    32db:	48 89 45 20          	mov    %rax,0x20(%rbp)
    32df:	48 89 55 28          	mov    %rdx,0x28(%rbp)
    32e3:	48 b8 20 72 65 73 75 	movabs $0x20746c7573657220,%rax
    32ea:	6c 74 20 
    32ed:	48 89 45 30          	mov    %rax,0x30(%rbp)
    32f1:	c7 45 38 73 65 72 76 	movl   $0x76726573,0x38(%rbp)
    32f8:	66 c7 45 3c 65 72    	movw   $0x7265,0x3c(%rbp)
    32fe:	c6 45 3e 00          	movb   $0x0,0x3e(%rbp)
    3302:	89 df                	mov    %ebx,%edi
    3304:	e8 f7 df ff ff       	callq  1300 <close@plt>
    3309:	b8 ff ff ff ff       	mov    $0xffffffff,%eax
    330e:	e9 a4 fb ff ff       	jmpq   2eb7 <submitr+0x2f8>
    3313:	4c 8d 8c 24 50 80 00 	lea    0x8050(%rsp),%r9
    331a:	00 
    331b:	48 8d 0d 46 14 00 00 	lea    0x1446(%rip),%rcx        # 4768 <trans_char+0x78>
    3322:	48 c7 c2 ff ff ff ff 	mov    $0xffffffffffffffff,%rdx
    3329:	be 01 00 00 00       	mov    $0x1,%esi
    332e:	48 89 ef             	mov    %rbp,%rdi
    3331:	b8 00 00 00 00       	mov    $0x0,%eax
    3336:	e8 05 e1 ff ff       	callq  1440 <__sprintf_chk@plt>
    333b:	89 df                	mov    %ebx,%edi
    333d:	e8 be df ff ff       	callq  1300 <close@plt>
    3342:	b8 ff ff ff ff       	mov    $0xffffffff,%eax
    3347:	e9 6b fb ff ff       	jmpq   2eb7 <submitr+0x2f8>
    334c:	e8 6f df ff ff       	callq  12c0 <__stack_chk_fail@plt>

0000000000003351 <init_timeout>:
    3351:	f3 0f 1e fa          	endbr64 
    3355:	85 ff                	test   %edi,%edi
    3357:	74 26                	je     337f <init_timeout+0x2e>
    3359:	53                   	push   %rbx
    335a:	89 fb                	mov    %edi,%ebx
    335c:	78 1a                	js     3378 <init_timeout+0x27>
    335e:	48 8d 35 8e f5 ff ff 	lea    -0xa72(%rip),%rsi        # 28f3 <sigalrm_handler>
    3365:	bf 0e 00 00 00       	mov    $0xe,%edi
    336a:	e8 b1 df ff ff       	callq  1320 <signal@plt>
    336f:	89 df                	mov    %ebx,%edi
    3371:	e8 7a df ff ff       	callq  12f0 <alarm@plt>
    3376:	5b                   	pop    %rbx
    3377:	c3                   	retq   
    3378:	bb 00 00 00 00       	mov    $0x0,%ebx
    337d:	eb df                	jmp    335e <init_timeout+0xd>
    337f:	c3                   	retq   

0000000000003380 <init_driver>:
    3380:	f3 0f 1e fa          	endbr64 
    3384:	41 54                	push   %r12
    3386:	55                   	push   %rbp
    3387:	53                   	push   %rbx
    3388:	48 83 ec 20          	sub    $0x20,%rsp
    338c:	48 89 fd             	mov    %rdi,%rbp
    338f:	64 48 8b 04 25 28 00 	mov    %fs:0x28,%rax
    3396:	00 00 
    3398:	48 89 44 24 18       	mov    %rax,0x18(%rsp)
    339d:	31 c0                	xor    %eax,%eax
    339f:	be 01 00 00 00       	mov    $0x1,%esi
    33a4:	bf 0d 00 00 00       	mov    $0xd,%edi
    33a9:	e8 72 df ff ff       	callq  1320 <signal@plt>
    33ae:	be 01 00 00 00       	mov    $0x1,%esi
    33b3:	bf 1d 00 00 00       	mov    $0x1d,%edi
    33b8:	e8 63 df ff ff       	callq  1320 <signal@plt>
    33bd:	be 01 00 00 00       	mov    $0x1,%esi
    33c2:	bf 1d 00 00 00       	mov    $0x1d,%edi
    33c7:	e8 54 df ff ff       	callq  1320 <signal@plt>
    33cc:	ba 00 00 00 00       	mov    $0x0,%edx
    33d1:	be 01 00 00 00       	mov    $0x1,%esi
    33d6:	bf 02 00 00 00       	mov    $0x2,%edi
    33db:	e8 70 e0 ff ff       	callq  1450 <socket@plt>
    33e0:	85 c0                	test   %eax,%eax
    33e2:	0f 88 9c 00 00 00    	js     3484 <init_driver+0x104>
    33e8:	89 c3                	mov    %eax,%ebx
    33ea:	48 8d 3d c8 13 00 00 	lea    0x13c8(%rip),%rdi        # 47b9 <trans_char+0xc9>
    33f1:	e8 3a df ff ff       	callq  1330 <gethostbyname@plt>
    33f6:	48 85 c0             	test   %rax,%rax
    33f9:	0f 84 d1 00 00 00    	je     34d0 <init_driver+0x150>
    33ff:	49 89 e4             	mov    %rsp,%r12
    3402:	48 c7 04 24 00 00 00 	movq   $0x0,(%rsp)
    3409:	00 
    340a:	48 c7 44 24 08 00 00 	movq   $0x0,0x8(%rsp)
    3411:	00 00 
    3413:	66 c7 04 24 02 00    	movw   $0x2,(%rsp)
    3419:	48 63 50 14          	movslq 0x14(%rax),%rdx
    341d:	48 8b 40 18          	mov    0x18(%rax),%rax
    3421:	48 8b 30             	mov    (%rax),%rsi
    3424:	48 8d 7c 24 04       	lea    0x4(%rsp),%rdi
    3429:	b9 0c 00 00 00       	mov    $0xc,%ecx
    342e:	e8 0d df ff ff       	callq  1340 <__memmove_chk@plt>
    3433:	66 c7 44 24 02 3c 9a 	movw   $0x9a3c,0x2(%rsp)
    343a:	ba 10 00 00 00       	mov    $0x10,%edx
    343f:	4c 89 e6             	mov    %r12,%rsi
    3442:	89 df                	mov    %ebx,%edi
    3444:	e8 c7 df ff ff       	callq  1410 <connect@plt>
    3449:	85 c0                	test   %eax,%eax
    344b:	0f 88 e7 00 00 00    	js     3538 <init_driver+0x1b8>
    3451:	89 df                	mov    %ebx,%edi
    3453:	e8 a8 de ff ff       	callq  1300 <close@plt>
    3458:	66 c7 45 00 4f 4b    	movw   $0x4b4f,0x0(%rbp)
    345e:	c6 45 02 00          	movb   $0x0,0x2(%rbp)
    3462:	b8 00 00 00 00       	mov    $0x0,%eax
    3467:	48 8b 4c 24 18       	mov    0x18(%rsp),%rcx
    346c:	64 48 33 0c 25 28 00 	xor    %fs:0x28,%rcx
    3473:	00 00 
    3475:	0f 85 10 01 00 00    	jne    358b <init_driver+0x20b>
    347b:	48 83 c4 20          	add    $0x20,%rsp
    347f:	5b                   	pop    %rbx
    3480:	5d                   	pop    %rbp
    3481:	41 5c                	pop    %r12
    3483:	c3                   	retq   
    3484:	48 b8 45 72 72 6f 72 	movabs $0x43203a726f727245,%rax
    348b:	3a 20 43 
    348e:	48 ba 6c 69 65 6e 74 	movabs $0x6e7520746e65696c,%rdx
    3495:	20 75 6e 
    3498:	48 89 45 00          	mov    %rax,0x0(%rbp)
    349c:	48 89 55 08          	mov    %rdx,0x8(%rbp)
    34a0:	48 b8 61 62 6c 65 20 	movabs $0x206f7420656c6261,%rax
    34a7:	74 6f 20 
    34aa:	48 ba 63 72 65 61 74 	movabs $0x7320657461657263,%rdx
    34b1:	65 20 73 
    34b4:	48 89 45 10          	mov    %rax,0x10(%rbp)
    34b8:	48 89 55 18          	mov    %rdx,0x18(%rbp)
    34bc:	c7 45 20 6f 63 6b 65 	movl   $0x656b636f,0x20(%rbp)
    34c3:	66 c7 45 24 74 00    	movw   $0x74,0x24(%rbp)
    34c9:	b8 ff ff ff ff       	mov    $0xffffffff,%eax
    34ce:	eb 97                	jmp    3467 <init_driver+0xe7>
    34d0:	48 b8 45 72 72 6f 72 	movabs $0x44203a726f727245,%rax
    34d7:	3a 20 44 
    34da:	48 ba 4e 53 20 69 73 	movabs $0x6e7520736920534e,%rdx
    34e1:	20 75 6e 
    34e4:	48 89 45 00          	mov    %rax,0x0(%rbp)
    34e8:	48 89 55 08          	mov    %rdx,0x8(%rbp)
    34ec:	48 b8 61 62 6c 65 20 	movabs $0x206f7420656c6261,%rax
    34f3:	74 6f 20 
    34f6:	48 ba 72 65 73 6f 6c 	movabs $0x2065766c6f736572,%rdx
    34fd:	76 65 20 
    3500:	48 89 45 10          	mov    %rax,0x10(%rbp)
    3504:	48 89 55 18          	mov    %rdx,0x18(%rbp)
    3508:	48 b8 73 65 72 76 65 	movabs $0x6120726576726573,%rax
    350f:	72 20 61 
    3512:	48 89 45 20          	mov    %rax,0x20(%rbp)
    3516:	c7 45 28 64 64 72 65 	movl   $0x65726464,0x28(%rbp)
    351d:	66 c7 45 2c 73 73    	movw   $0x7373,0x2c(%rbp)
    3523:	c6 45 2e 00          	movb   $0x0,0x2e(%rbp)
    3527:	89 df                	mov    %ebx,%edi
    3529:	e8 d2 dd ff ff       	callq  1300 <close@plt>
    352e:	b8 ff ff ff ff       	mov    $0xffffffff,%eax
    3533:	e9 2f ff ff ff       	jmpq   3467 <init_driver+0xe7>
    3538:	48 b8 45 72 72 6f 72 	movabs $0x55203a726f727245,%rax
    353f:	3a 20 55 
    3542:	48 ba 6e 61 62 6c 65 	movabs $0x6f7420656c62616e,%rdx
    3549:	20 74 6f 
    354c:	48 89 45 00          	mov    %rax,0x0(%rbp)
    3550:	48 89 55 08          	mov    %rdx,0x8(%rbp)
    3554:	48 b8 20 63 6f 6e 6e 	movabs $0x7463656e6e6f6320,%rax
    355b:	65 63 74 
    355e:	48 ba 20 74 6f 20 73 	movabs $0x76726573206f7420,%rdx
    3565:	65 72 76 
    3568:	48 89 45 10          	mov    %rax,0x10(%rbp)
    356c:	48 89 55 18          	mov    %rdx,0x18(%rbp)
    3570:	66 c7 45 20 65 72    	movw   $0x7265,0x20(%rbp)
    3576:	c6 45 22 00          	movb   $0x0,0x22(%rbp)
    357a:	89 df                	mov    %ebx,%edi
    357c:	e8 7f dd ff ff       	callq  1300 <close@plt>
    3581:	b8 ff ff ff ff       	mov    $0xffffffff,%eax
    3586:	e9 dc fe ff ff       	jmpq   3467 <init_driver+0xe7>
    358b:	e8 30 dd ff ff       	callq  12c0 <__stack_chk_fail@plt>

0000000000003590 <driver_post>:
    3590:	f3 0f 1e fa          	endbr64 
    3594:	53                   	push   %rbx
    3595:	4c 89 cb             	mov    %r9,%rbx
    3598:	45 85 c0             	test   %r8d,%r8d
    359b:	75 18                	jne    35b5 <driver_post+0x25>
    359d:	48 85 ff             	test   %rdi,%rdi
    35a0:	74 05                	je     35a7 <driver_post+0x17>
    35a2:	80 3f 00             	cmpb   $0x0,(%rdi)
    35a5:	75 37                	jne    35de <driver_post+0x4e>
    35a7:	66 c7 03 4f 4b       	movw   $0x4b4f,(%rbx)
    35ac:	c6 43 02 00          	movb   $0x0,0x2(%rbx)
    35b0:	44 89 c0             	mov    %r8d,%eax
    35b3:	5b                   	pop    %rbx
    35b4:	c3                   	retq   
    35b5:	48 89 ca             	mov    %rcx,%rdx
    35b8:	48 8d 35 12 12 00 00 	lea    0x1212(%rip),%rsi        # 47d1 <trans_char+0xe1>
    35bf:	bf 01 00 00 00       	mov    $0x1,%edi
    35c4:	b8 00 00 00 00       	mov    $0x0,%eax
    35c9:	e8 e2 dd ff ff       	callq  13b0 <__printf_chk@plt>
    35ce:	66 c7 03 4f 4b       	movw   $0x4b4f,(%rbx)
    35d3:	c6 43 02 00          	movb   $0x0,0x2(%rbx)
    35d7:	b8 00 00 00 00       	mov    $0x0,%eax
    35dc:	eb d5                	jmp    35b3 <driver_post+0x23>
    35de:	48 83 ec 08          	sub    $0x8,%rsp
    35e2:	41 51                	push   %r9
    35e4:	49 89 c9             	mov    %rcx,%r9
    35e7:	49 89 d0             	mov    %rdx,%r8
    35ea:	48 89 f9             	mov    %rdi,%rcx
    35ed:	48 89 f2             	mov    %rsi,%rdx
    35f0:	be 9a 3c 00 00       	mov    $0x3c9a,%esi
    35f5:	48 8d 3d bd 11 00 00 	lea    0x11bd(%rip),%rdi        # 47b9 <trans_char+0xc9>
    35fc:	e8 be f5 ff ff       	callq  2bbf <submitr>
    3601:	48 83 c4 10          	add    $0x10,%rsp
    3605:	eb ac                	jmp    35b3 <driver_post+0x23>

0000000000003607 <check>:
    3607:	f3 0f 1e fa          	endbr64 
    360b:	89 f8                	mov    %edi,%eax
    360d:	c1 e8 1c             	shr    $0x1c,%eax
    3610:	74 1d                	je     362f <check+0x28>
    3612:	b9 00 00 00 00       	mov    $0x0,%ecx
    3617:	83 f9 1f             	cmp    $0x1f,%ecx
    361a:	7f 0d                	jg     3629 <check+0x22>
    361c:	89 f8                	mov    %edi,%eax
    361e:	d3 e8                	shr    %cl,%eax
    3620:	3c 0a                	cmp    $0xa,%al
    3622:	74 11                	je     3635 <check+0x2e>
    3624:	83 c1 08             	add    $0x8,%ecx
    3627:	eb ee                	jmp    3617 <check+0x10>
    3629:	b8 01 00 00 00       	mov    $0x1,%eax
    362e:	c3                   	retq   
    362f:	b8 00 00 00 00       	mov    $0x0,%eax
    3634:	c3                   	retq   
    3635:	b8 00 00 00 00       	mov    $0x0,%eax
    363a:	c3                   	retq   

000000000000363b <gencookie>:
    363b:	f3 0f 1e fa          	endbr64 
    363f:	53                   	push   %rbx
    3640:	83 c7 01             	add    $0x1,%edi
    3643:	e8 28 dc ff ff       	callq  1270 <srandom@plt>
    3648:	e8 33 dd ff ff       	callq  1380 <random@plt>
    364d:	48 89 c7             	mov    %rax,%rdi
    3650:	89 c3                	mov    %eax,%ebx
    3652:	e8 b0 ff ff ff       	callq  3607 <check>
    3657:	85 c0                	test   %eax,%eax
    3659:	74 ed                	je     3648 <gencookie+0xd>
    365b:	89 d8                	mov    %ebx,%eax
    365d:	5b                   	pop    %rbx
    365e:	c3                   	retq   
    365f:	90                   	nop

0000000000003660 <__libc_csu_init>:
    3660:	f3 0f 1e fa          	endbr64 
    3664:	41 57                	push   %r15
    3666:	4c 8d 3d 4b 36 00 00 	lea    0x364b(%rip),%r15        # 6cb8 <__frame_dummy_init_array_entry>
    366d:	41 56                	push   %r14
    366f:	49 89 d6             	mov    %rdx,%r14
    3672:	41 55                	push   %r13
    3674:	49 89 f5             	mov    %rsi,%r13
    3677:	41 54                	push   %r12
    3679:	41 89 fc             	mov    %edi,%r12d
    367c:	55                   	push   %rbp
    367d:	48 8d 2d 3c 36 00 00 	lea    0x363c(%rip),%rbp        # 6cc0 <__do_global_dtors_aux_fini_array_entry>
    3684:	53                   	push   %rbx
    3685:	4c 29 fd             	sub    %r15,%rbp
    3688:	48 83 ec 08          	sub    $0x8,%rsp
    368c:	e8 6f d9 ff ff       	callq  1000 <_init>
    3691:	48 c1 fd 03          	sar    $0x3,%rbp
    3695:	74 1f                	je     36b6 <__libc_csu_init+0x56>
    3697:	31 db                	xor    %ebx,%ebx
    3699:	0f 1f 80 00 00 00 00 	nopl   0x0(%rax)
    36a0:	4c 89 f2             	mov    %r14,%rdx
    36a3:	4c 89 ee             	mov    %r13,%rsi
    36a6:	44 89 e7             	mov    %r12d,%edi
    36a9:	41 ff 14 df          	callq  *(%r15,%rbx,8)
    36ad:	48 83 c3 01          	add    $0x1,%rbx
    36b1:	48 39 dd             	cmp    %rbx,%rbp
    36b4:	75 ea                	jne    36a0 <__libc_csu_init+0x40>
    36b6:	48 83 c4 08          	add    $0x8,%rsp
    36ba:	5b                   	pop    %rbx
    36bb:	5d                   	pop    %rbp
    36bc:	41 5c                	pop    %r12
    36be:	41 5d                	pop    %r13
    36c0:	41 5e                	pop    %r14
    36c2:	41 5f                	pop    %r15
    36c4:	c3                   	retq   
    36c5:	66 66 2e 0f 1f 84 00 	data16 nopw %cs:0x0(%rax,%rax,1)
    36cc:	00 00 00 00 

00000000000036d0 <__libc_csu_fini>:
    36d0:	f3 0f 1e fa          	endbr64 
    36d4:	c3                   	retq   

Disassembly of section .fini:

00000000000036d8 <_fini>:
    36d8:	f3 0f 1e fa          	endbr64 
    36dc:	48 83 ec 08          	sub    $0x8,%rsp
    36e0:	48 83 c4 08          	add    $0x8,%rsp
    36e4:	c3                   	retq   
